---
triple:          'arm64-apple-darwin'
binary-path:     '/Users/heng-ancheng/Desktop/2024-algorithm-intro/Algorithm_FP/main'
relocations:
  - { offset: 0x1512E, size: 0x8, addend: 0x0, symName: __ZStL8__ioinit, symObjAddr: 0x9AEC8, symBinAddr: 0x100020008, symSize: 0x0 }
  - { offset: 0x15769, size: 0x8, addend: 0x0, symName: _st, symObjAddr: 0x9AED0, symBinAddr: 0x100020010, symSize: 0x0 }
  - { offset: 0x1577F, size: 0x8, addend: 0x0, symName: _flag, symObjAddr: 0x9AED8, symBinAddr: 0x100020018, symSize: 0x0 }
  - { offset: 0x15795, size: 0x8, addend: 0x0, symName: _timelimit, symObjAddr: 0xDEE8, symBinAddr: 0x100020000, symSize: 0x0 }
  - { offset: 0x162F5, size: 0x8, addend: 0x0, symName: __ZNSt10_Head_baseILm0ERKxLb0EE7_M_headERS2_, symObjAddr: 0xDB70, symBinAddr: 0x1000107EC, symSize: 0x18 }
  - { offset: 0x1631C, size: 0x8, addend: 0x0, symName: __ZNSt11_Tuple_implILm0EJRKxEE7_M_headERS2_, symObjAddr: 0xDB54, symBinAddr: 0x1000107D0, symSize: 0x1C }
  - { offset: 0x16344, size: 0x8, addend: 0x0, symName: __ZSt12__get_helperILm0ERKxJEERT0_RSt11_Tuple_implIXT_EJS2_DpT1_EE, symObjAddr: 0xDB38, symBinAddr: 0x1000107B4, symSize: 0x1C }
  - { offset: 0x16384, size: 0x8, addend: 0x0, symName: __ZNSt11__copy_moveILb1ELb1ESt26random_access_iterator_tagE8__copy_mIxxEEPT0_PT_S6_S4_, symObjAddr: 0xDAA8, symBinAddr: 0x100010724, symSize: 0x90 }
  - { offset: 0x163EF, size: 0x8, addend: 0x0, symName: __ZNSt11__copy_moveILb0ELb0ESt26random_access_iterator_tagE12__assign_oneIxKxEEvPT_PT0_, symObjAddr: 0xDA80, symBinAddr: 0x1000106FC, symSize: 0x28 }
  - { offset: 0x16439, size: 0x8, addend: 0x0, symName: __ZSt3getILm0EJRKxEERNSt13tuple_elementIXT_ESt5tupleIJDpT0_EEE4typeERS6_, symObjAddr: 0xDA64, symBinAddr: 0x1000106E0, symSize: 0x1C }
  - { offset: 0x16476, size: 0x8, addend: 0x0, symName: __ZNSt11__copy_moveILb1ELb0ESt26random_access_iterator_tagE12__assign_oneI11merged_pairS3_EEvPT_PT0_, symObjAddr: 0xDA28, symBinAddr: 0x1000106A4, symSize: 0x3C }
  - { offset: 0x164C0, size: 0x8, addend: 0x0, symName: __ZSt14__copy_move_a2ILb1EPxS0_ET1_T0_S2_S1_, symObjAddr: 0xD9FC, symBinAddr: 0x100010678, symSize: 0x2C }
  - { offset: 0x16524, size: 0x8, addend: 0x0, symName: __ZNSt11__copy_moveILb0ELb1ESt26random_access_iterator_tagE8__copy_mIKxxEEPT0_PT_S7_S5_, symObjAddr: 0xD96C, symBinAddr: 0x1000105E8, symSize: 0x90 }
  - { offset: 0x165FD, size: 0x8, addend: 0x0, symName: __ZNSt4pairIKxSt3setIxSt4lessIxESaIxEEEC1IJRS0_EJLm0EEJEJEEERSt5tupleIJDpT_EERS9_IJDpT1_EESt12_Index_tupleIJXspT0_EEESI_IJXspT2_EEE, symObjAddr: 0xD90C, symBinAddr: 0x100010588, symSize: 0x60 }
  - { offset: 0x16697, size: 0x8, addend: 0x0, symName: __ZNSt20_Rb_tree_key_compareISt4lessIxEEC2EOS2_, symObjAddr: 0xD8F4, symBinAddr: 0x100010570, symSize: 0x18 }
  - { offset: 0x166C1, size: 0x8, addend: 0x0, symName: __ZNSt20__copy_move_backwardILb1ELb1ESt26random_access_iterator_tagE13__copy_move_bI11merged_pairS3_EEPT0_PT_S7_S5_, symObjAddr: 0xD848, symBinAddr: 0x1000104C4, symSize: 0xAC }
  - { offset: 0x16731, size: 0x8, addend: 0x0, symName: __ZN9__gnu_cxx5__ops14_Iter_comp_valIPFbRK11merged_pairS4_EEclINS_17__normal_iteratorIPS2_St6vectorIS2_SaIS2_EEEES2_EEbT_RT0_, symObjAddr: 0xD80C, symBinAddr: 0x100010488, symSize: 0x3C }
  - { offset: 0x1678C, size: 0x8, addend: 0x0, symName: __ZSt4moveIRxEONSt16remove_referenceIT_E4typeEOS2_, symObjAddr: 0xD7F8, symBinAddr: 0x100010474, symSize: 0x14 }
  - { offset: 0x167BC, size: 0x8, addend: 0x0, symName: __ZSt14__copy_move_a1ILb1EPxS0_ET1_T0_S2_S1_, symObjAddr: 0xD7CC, symBinAddr: 0x100010448, symSize: 0x2C }
  - { offset: 0x16825, size: 0x8, addend: 0x0, symName: __ZNKSt13move_iteratorIPxE4baseEv, symObjAddr: 0xD7B4, symBinAddr: 0x100010430, symSize: 0x18 }
  - { offset: 0x1684A, size: 0x8, addend: 0x0, symName: __ZSt14__copy_move_a2ILb0EPKxPxET1_T0_S4_S3_, symObjAddr: 0xD788, symBinAddr: 0x100010404, symSize: 0x2C }
  - { offset: 0x168B3, size: 0x8, addend: 0x0, symName: __ZNK9__gnu_cxx17__normal_iteratorIPKxSt6vectorIxSaIxEEE4baseEv, symObjAddr: 0xD774, symBinAddr: 0x1000103F0, symSize: 0x14 }
  - { offset: 0x1696D, size: 0x8, addend: 0x0, symName: __ZN5agentC1EOS_, symObjAddr: 0xD70C, symBinAddr: 0x100010388, symSize: 0x68 }
  - { offset: 0x1699D, size: 0x8, addend: 0x0, symName: __ZSt7forwardI5agentEOT_RNSt16remove_referenceIS1_E4typeE, symObjAddr: 0xD6F8, symBinAddr: 0x100010374, symSize: 0x14 }
  - { offset: 0x16A62, size: 0x8, addend: 0x0, symName: __ZN6serverC1EOS_, symObjAddr: 0xD6A0, symBinAddr: 0x10001031C, symSize: 0x58 }
  - { offset: 0x16A92, size: 0x8, addend: 0x0, symName: __ZSt7forwardI6serverEOT_RNSt16remove_referenceIS1_E4typeE, symObjAddr: 0xD68C, symBinAddr: 0x100010308, symSize: 0x14 }
  - { offset: 0x16AC7, size: 0x8, addend: 0x0, symName: __ZNSt15__new_allocatorISt13_Rb_tree_nodeIxEE8allocateEmPKv, symObjAddr: 0xD5FC, symBinAddr: 0x100010278, symSize: 0x90 }
  - { offset: 0x16B9D, size: 0x8, addend: 0x0, symName: __ZNSt4pairIKxSt3setIxSt4lessIxESaIxEEEC1IJRS0_EJEEESt21piecewise_construct_tSt5tupleIJDpT_EESA_IJDpT0_EE, symObjAddr: 0xD5C0, symBinAddr: 0x10001023C, symSize: 0x3C }
  - { offset: 0x16C17, size: 0x8, addend: 0x0, symName: __ZNSt11_Tuple_implILm0EJRKxEEC2EOS2_, symObjAddr: 0xD598, symBinAddr: 0x100010214, symSize: 0x28 }
  - { offset: 0x16CD6, size: 0x8, addend: 0x0, symName: __ZN12merged_agentC1EOS_, symObjAddr: 0xD514, symBinAddr: 0x100010190, symSize: 0x84 }
  - { offset: 0x16D24, size: 0x8, addend: 0x0, symName: __ZNSt3setIxSt4lessIxESaIxEEC1EOS3_, symObjAddr: 0xD4EC, symBinAddr: 0x100010168, symSize: 0x28 }
  - { offset: 0x16D72, size: 0x8, addend: 0x0, symName: __ZNSt8_Rb_treeIxxSt9_IdentityIxESt4lessIxESaIxEEC1EOS5_, symObjAddr: 0xD4C4, symBinAddr: 0x100010140, symSize: 0x28 }
  - { offset: 0x16DC0, size: 0x8, addend: 0x0, symName: __ZNSt8_Rb_treeIxxSt9_IdentityIxESt4lessIxESaIxEE13_Rb_tree_implIS3_Lb1EEC1EOS7_, symObjAddr: 0xD458, symBinAddr: 0x1000100D4, symSize: 0x6C }
  - { offset: 0x16E49, size: 0x8, addend: 0x0, symName: __ZSt7forwardI12merged_agentEOT_RNSt16remove_referenceIS1_E4typeE, symObjAddr: 0xD444, symBinAddr: 0x1000100C0, symSize: 0x14 }
  - { offset: 0x16EBB, size: 0x8, addend: 0x0, symName: __ZSt23__copy_move_backward_a2ILb1EP11merged_pairS1_ET1_T0_S3_S2_, symObjAddr: 0xD418, symBinAddr: 0x100010094, symSize: 0x2C }
  - { offset: 0x16F25, size: 0x8, addend: 0x0, symName: __ZSt11__push_heapIN9__gnu_cxx17__normal_iteratorIP11merged_pairSt6vectorIS2_SaIS2_EEEElS2_NS0_5__ops14_Iter_comp_valIPFbRKS2_SB_EEEEvT_T0_SG_T1_RT2_, symObjAddr: 0xD2D8, symBinAddr: 0x10000FF54, symSize: 0x140 }
  - { offset: 0x16FE8, size: 0x8, addend: 0x0, symName: __ZN9__gnu_cxx5__ops14_Iter_comp_valIPFbRK11merged_pairS4_EEC1EONS0_15_Iter_comp_iterIS6_EE, symObjAddr: 0xD2A8, symBinAddr: 0x10000FF24, symSize: 0x30 }
  - { offset: 0x17012, size: 0x8, addend: 0x0, symName: __ZNSt11__copy_moveILb1ELb0ESt26random_access_iterator_tagE12__assign_oneIxxEEvPT_PT0_, symObjAddr: 0xD278, symBinAddr: 0x10000FEF4, symSize: 0x30 }
  - { offset: 0x1705C, size: 0x8, addend: 0x0, symName: __ZSt13__copy_move_aILb1EPxS0_ET1_T0_S2_S1_, symObjAddr: 0xD218, symBinAddr: 0x10000FE94, symSize: 0x60 }
  - { offset: 0x170C0, size: 0x8, addend: 0x0, symName: __ZSt12__miter_baseIPxEDTcl12__miter_basecldtfp_4baseEEESt13move_iteratorIT_E, symObjAddr: 0xD1F8, symBinAddr: 0x10000FE74, symSize: 0x20 }
  - { offset: 0x170F1, size: 0x8, addend: 0x0, symName: __ZSt14__copy_move_a1ILb0EPKxPxET1_T0_S4_S3_, symObjAddr: 0xD1CC, symBinAddr: 0x10000FE48, symSize: 0x2C }
  - { offset: 0x17155, size: 0x8, addend: 0x0, symName: __ZSt12__niter_baseIPKxSt6vectorIxSaIxEEET_N9__gnu_cxx17__normal_iteratorIS5_T0_EE, symObjAddr: 0xD1AC, symBinAddr: 0x10000FE28, symSize: 0x20 }
  - { offset: 0x17194, size: 0x8, addend: 0x0, symName: __ZNK9__gnu_cxx17__normal_iteratorIPK5agentSt6vectorIS1_SaIS1_EEE4baseEv, symObjAddr: 0xD198, symBinAddr: 0x10000FE14, symSize: 0x14 }
  - { offset: 0x17230, size: 0x8, addend: 0x0, symName: __ZSt4moveIR5agentEONSt16remove_referenceIT_E4typeEOS3_, symObjAddr: 0xD184, symBinAddr: 0x10000FE00, symSize: 0x14 }
  - { offset: 0x172ED, size: 0x8, addend: 0x0, symName: __ZSt4moveIR6serverEONSt16remove_referenceIT_E4typeEOS3_, symObjAddr: 0xD170, symBinAddr: 0x10000FDEC, symSize: 0x14 }
  - { offset: 0x173DD, size: 0x8, addend: 0x0, symName: __ZNSt5tupleIJRKxEEC1EOS2_, symObjAddr: 0xD148, symBinAddr: 0x10000FDC4, symSize: 0x28 }
  - { offset: 0x1740C, size: 0x8, addend: 0x0, symName: __ZNSt15__new_allocatorISt13_Rb_tree_nodeISt4pairIKxSt3setIxSt4lessIxESaIxEEEEE8allocateEmPKv, symObjAddr: 0xD0A4, symBinAddr: 0x10000FD20, symSize: 0xA4 }
  - { offset: 0x17498, size: 0x8, addend: 0x0, symName: __ZSt7forwardIR12merged_agentEOT_RNSt16remove_referenceIS2_E4typeE, symObjAddr: 0xD090, symBinAddr: 0x10000FD0C, symSize: 0x14 }
  - { offset: 0x1753F, size: 0x8, addend: 0x0, symName: __ZSt4moveIR12merged_agentEONSt16remove_referenceIT_E4typeEOS3_, symObjAddr: 0xD07C, symBinAddr: 0x10000FCF8, symSize: 0x14 }
  - { offset: 0x175C9, size: 0x8, addend: 0x0, symName: __ZSt12__niter_wrapIN9__gnu_cxx17__normal_iteratorIP11merged_pairSt6vectorIS2_SaIS2_EEEES3_ET_S8_T0_, symObjAddr: 0xD034, symBinAddr: 0x10000FCB0, symSize: 0x48 }
  - { offset: 0x17613, size: 0x8, addend: 0x0, symName: __ZSt23__copy_move_backward_a1ILb1EP11merged_pairS1_ET1_T0_S3_S2_, symObjAddr: 0xD008, symBinAddr: 0x10000FC84, symSize: 0x2C }
  - { offset: 0x17677, size: 0x8, addend: 0x0, symName: __ZSt12__niter_baseIP11merged_pairSt6vectorIS0_SaIS0_EEET_N9__gnu_cxx17__normal_iteratorIS5_T0_EE, symObjAddr: 0xCFE8, symBinAddr: 0x10000FC64, symSize: 0x20 }
  - { offset: 0x176B1, size: 0x8, addend: 0x0, symName: __ZSt4swapI11merged_pairENSt9enable_ifIXsrSt6__and_IJSt6__not_ISt15__is_tuple_likeIT_EESt21is_move_constructibleIS5_ESt18is_move_assignableIS5_EEE5valueEvE4typeERS5_SF_, symObjAddr: 0xCF6C, symBinAddr: 0x10000FBE8, symSize: 0x7C }
  - { offset: 0x17700, size: 0x8, addend: 0x0, symName: __ZSt13__adjust_heapIN9__gnu_cxx17__normal_iteratorIP11merged_pairSt6vectorIS2_SaIS2_EEEElS2_NS0_5__ops15_Iter_comp_iterIPFbRKS2_SB_EEEEvT_T0_SG_T1_T2_, symObjAddr: 0xCD60, symBinAddr: 0x10000F9DC, symSize: 0x20C }
  - { offset: 0x177D1, size: 0x8, addend: 0x0, symName: __ZSt10__fill_n_aIPxmxET_S1_T0_RKT1_St26random_access_iterator_tag, symObjAddr: 0xCCFC, symBinAddr: 0x10000F978, symSize: 0x64 }
  - { offset: 0x17853, size: 0x8, addend: 0x0, symName: __ZNSt20__copy_move_backwardILb1ELb1ESt26random_access_iterator_tagE13__copy_move_bIxxEEPT0_PT_S6_S4_, symObjAddr: 0xCC50, symBinAddr: 0x10000F8CC, symSize: 0xAC }
  - { offset: 0x178BE, size: 0x8, addend: 0x0, symName: __ZSt4copyISt13move_iteratorIPxES1_ET0_T_S4_S3_, symObjAddr: 0xCC08, symBinAddr: 0x10000F884, symSize: 0x48 }
  - { offset: 0x17937, size: 0x8, addend: 0x0, symName: __ZN9__gnu_cxx16__aligned_membufIxE7_M_addrEv, symObjAddr: 0xCBF4, symBinAddr: 0x10000F870, symSize: 0x14 }
  - { offset: 0x1795C, size: 0x8, addend: 0x0, symName: __ZSt13__copy_move_aILb0EN9__gnu_cxx17__normal_iteratorIPKxSt6vectorIxSaIxEEEEPxET1_T0_SA_S9_, symObjAddr: 0xCB94, symBinAddr: 0x10000F810, symSize: 0x60 }
  - { offset: 0x179C0, size: 0x8, addend: 0x0, symName: __ZSt12__miter_baseIN9__gnu_cxx17__normal_iteratorIPKxSt6vectorIxSaIxEEEEET_S8_, symObjAddr: 0xCB80, symBinAddr: 0x10000F7FC, symSize: 0x14 }
  - { offset: 0x179F1, size: 0x8, addend: 0x0, symName: __ZSt10_ConstructI5agentJRKS0_EEvPT_DpOT0_, symObjAddr: 0xCB04, symBinAddr: 0x10000F780, symSize: 0x7C }
  - { offset: 0x17A40, size: 0x8, addend: 0x0, symName: __ZNK9__gnu_cxx17__normal_iteratorIPK5agentSt6vectorIS1_SaIS1_EEEdeEv, symObjAddr: 0xCAEC, symBinAddr: 0x10000F768, symSize: 0x18 }
  - { offset: 0x17A6A, size: 0x8, addend: 0x0, symName: __ZN9__gnu_cxx17__normal_iteratorIPK5agentSt6vectorIS1_SaIS1_EEEppEv, symObjAddr: 0xCAC4, symBinAddr: 0x10000F740, symSize: 0x28 }
  - { offset: 0x17A95, size: 0x8, addend: 0x0, symName: __ZN9__gnu_cxxneIPK5agentSt6vectorIS1_SaIS1_EEEEbRKNS_17__normal_iteratorIT_T0_EESC_, symObjAddr: 0xCA80, symBinAddr: 0x10000F6FC, symSize: 0x44 }
  - { offset: 0x17ADF, size: 0x8, addend: 0x0, symName: __ZSt19__relocate_object_aI5agentS0_SaIS0_EEvPT_PT0_RT1_, symObjAddr: 0xC9B0, symBinAddr: 0x10000F62C, symSize: 0xD0 }
  - { offset: 0x17C23, size: 0x8, addend: 0x0, symName: __ZSt19__relocate_object_aI6serverS0_SaIS0_EEvPT_PT0_RT1_, symObjAddr: 0xC8E0, symBinAddr: 0x10000F55C, symSize: 0xD0 }
  - { offset: 0x17D6C, size: 0x8, addend: 0x0, symName: __ZNSt8_Rb_treeIxxSt9_IdentityIxESt4lessIxESaIxEE11_M_get_nodeEv, symObjAddr: 0xC8A4, symBinAddr: 0x10000F520, symSize: 0x3C }
  - { offset: 0x17DCA, size: 0x8, addend: 0x0, symName: __ZSt7forwardIRPSt13_Rb_tree_nodeISt4pairIKxSt3setIxSt4lessIxESaIxEEEEEOT_RNSt16remove_referenceISC_E4typeE, symObjAddr: 0xC890, symBinAddr: 0x10000F50C, symSize: 0x14 }
  - { offset: 0x17E76, size: 0x8, addend: 0x0, symName: __ZSt10_ConstructI12merged_agentJRS0_EEvPT_DpOT0_, symObjAddr: 0xC814, symBinAddr: 0x10000F490, symSize: 0x7C }
  - { offset: 0x17EC0, size: 0x8, addend: 0x0, symName: __ZNSt11__copy_moveILb0ELb0ESt26random_access_iterator_tagE8__copy_mIP12merged_agentS4_EET0_T_S6_S5_, symObjAddr: 0xC794, symBinAddr: 0x10000F410, symSize: 0x80 }
  - { offset: 0x17F4B, size: 0x8, addend: 0x0, symName: __ZNSt11__copy_moveILb0ELb0ESt26random_access_iterator_tagE8__copy_mIPK12merged_agentPS3_EET0_T_S8_S7_, symObjAddr: 0xC714, symBinAddr: 0x10000F390, symSize: 0x80 }
  - { offset: 0x17FDE, size: 0x8, addend: 0x0, symName: __ZN12merged_agentaSERKS_, symObjAddr: 0xC6A0, symBinAddr: 0x10000F31C, symSize: 0x74 }
  - { offset: 0x18011, size: 0x8, addend: 0x0, symName: __ZNSt15__new_allocatorISt13_Rb_tree_nodeISt4pairIKxSt3setIxSt4lessIxESaIxEEEEE10deallocateEPS9_m, symObjAddr: 0xC65C, symBinAddr: 0x10000F2D8, symSize: 0x44 }
  - { offset: 0x180AD, size: 0x8, addend: 0x0, symName: __ZNSt4pairIKxSt3setIxSt4lessIxESaIxEEED1Ev, symObjAddr: 0xC638, symBinAddr: 0x10000F2B4, symSize: 0x24 }
  - { offset: 0x180CE, size: 0x8, addend: 0x0, symName: __ZSt19__relocate_object_aI12merged_agentS0_SaIS0_EEvPT_PT0_RT1_, symObjAddr: 0xC568, symBinAddr: 0x10000F1E4, symSize: 0xD0 }
  - { offset: 0x18217, size: 0x8, addend: 0x0, symName: __ZNSt8_Rb_treeIxxSt9_IdentityIxESt4lessIxESaIxEE17_M_construct_nodeIJRKxEEEvPSt13_Rb_tree_nodeIxEDpOT_, symObjAddr: 0xC4B8, symBinAddr: 0x10000F134, symSize: 0xB0 }
  - { offset: 0x182D9, size: 0x8, addend: 0x0, symName: __ZNSt8_Rb_treeIxxSt9_IdentityIxESt4lessIxESaIxEE20_Reuse_or_alloc_node10_M_extractEv, symObjAddr: 0xC39C, symBinAddr: 0x10000F018, symSize: 0x11C }
  - { offset: 0x18314, size: 0x8, addend: 0x0, symName: __ZN9__gnu_cxx5__ops14_Val_comp_iterIPFbRK11merged_pairS4_EEclIS2_NS_17__normal_iteratorIPS2_St6vectorIS2_SaIS2_EEEEEEbRT_T0_, symObjAddr: 0xC35C, symBinAddr: 0x10000EFD8, symSize: 0x40 }
  - { offset: 0x18395, size: 0x8, addend: 0x0, symName: __ZN9__gnu_cxx5__ops14_Val_comp_iterIPFbRK11merged_pairS4_EEC1EONS0_15_Iter_comp_iterIS6_EE, symObjAddr: 0xC32C, symBinAddr: 0x10000EFA8, symSize: 0x30 }
  - { offset: 0x183CB, size: 0x8, addend: 0x0, symName: __ZSt4moveIRN9__gnu_cxx5__ops15_Iter_comp_iterIPFbRK11merged_pairS5_EEEEONSt16remove_referenceIT_E4typeEOSB_, symObjAddr: 0xC318, symBinAddr: 0x10000EF94, symSize: 0x14 }
  - { offset: 0x183FB, size: 0x8, addend: 0x0, symName: __ZSt22__copy_move_backward_aILb1EN9__gnu_cxx17__normal_iteratorIP11merged_pairSt6vectorIS2_SaIS2_EEEES7_ET1_T0_S9_S8_, symObjAddr: 0xC2B8, symBinAddr: 0x10000EF34, symSize: 0x60 }
  - { offset: 0x1845F, size: 0x8, addend: 0x0, symName: __ZSt12__miter_baseIN9__gnu_cxx17__normal_iteratorIP11merged_pairSt6vectorIS2_SaIS2_EEEEET_S8_, symObjAddr: 0xC2A4, symBinAddr: 0x10000EF20, symSize: 0x14 }
  - { offset: 0x18490, size: 0x8, addend: 0x0, symName: __ZSt9iter_swapIN9__gnu_cxx17__normal_iteratorIP11merged_pairSt6vectorIS2_SaIS2_EEEES7_EvT_T0_, symObjAddr: 0xC260, symBinAddr: 0x10000EEDC, symSize: 0x44 }
  - { offset: 0x184DD, size: 0x8, addend: 0x0, symName: __ZN9__gnu_cxx17__normal_iteratorIP11merged_pairSt6vectorIS1_SaIS1_EEEmmEv, symObjAddr: 0xC238, symBinAddr: 0x10000EEB4, symSize: 0x28 }
  - { offset: 0x18502, size: 0x8, addend: 0x0, symName: __ZSt10__pop_heapIN9__gnu_cxx17__normal_iteratorIP11merged_pairSt6vectorIS2_SaIS2_EEEENS0_5__ops15_Iter_comp_iterIPFbRKS2_SB_EEEEvT_SF_SF_RT0_, symObjAddr: 0xC16C, symBinAddr: 0x10000EDE8, symSize: 0xCC }
  - { offset: 0x18599, size: 0x8, addend: 0x0, symName: __ZN9__gnu_cxxltIP11merged_pairSt6vectorIS1_SaIS1_EEEEbRKNS_17__normal_iteratorIT_T0_EESB_, symObjAddr: 0xC128, symBinAddr: 0x10000EDA4, symSize: 0x44 }
  - { offset: 0x185E3, size: 0x8, addend: 0x0, symName: __ZSt11__make_heapIN9__gnu_cxx17__normal_iteratorIP11merged_pairSt6vectorIS2_SaIS2_EEEENS0_5__ops15_Iter_comp_iterIPFbRKS2_SB_EEEEvT_SF_RT0_, symObjAddr: 0xC024, symBinAddr: 0x10000ECA0, symSize: 0x104 }
  - { offset: 0x186AF, size: 0x8, addend: 0x0, symName: __ZSt6fill_nIPxmxET_S1_T0_RKT1_, symObjAddr: 0xBFDC, symBinAddr: 0x10000EC58, symSize: 0x48 }
  - { offset: 0x18733, size: 0x8, addend: 0x0, symName: __ZSt23__copy_move_backward_a2ILb1EPxS0_ET1_T0_S2_S1_, symObjAddr: 0xBFB0, symBinAddr: 0x10000EC2C, symSize: 0x2C }
  - { offset: 0x18797, size: 0x8, addend: 0x0, symName: __ZNSt20__uninitialized_copyILb1EE13__uninit_copyISt13move_iteratorIPxES3_EET0_T_S6_S5_, symObjAddr: 0xBF84, symBinAddr: 0x10000EC00, symSize: 0x2C }
  - { offset: 0x187EE, size: 0x8, addend: 0x0, symName: __ZSt10_ConstructI12merged_agentJRKS0_EEvPT_DpOT0_, symObjAddr: 0xBF08, symBinAddr: 0x10000EB84, symSize: 0x7C }
  - { offset: 0x1883D, size: 0x8, addend: 0x0, symName: __ZNK9__gnu_cxx17__normal_iteratorIPK12merged_agentSt6vectorIS1_SaIS1_EEEdeEv, symObjAddr: 0xBEF0, symBinAddr: 0x10000EB6C, symSize: 0x18 }
  - { offset: 0x18867, size: 0x8, addend: 0x0, symName: __ZN9__gnu_cxx17__normal_iteratorIPK12merged_agentSt6vectorIS1_SaIS1_EEEppEv, symObjAddr: 0xBEC8, symBinAddr: 0x10000EB44, symSize: 0x28 }
  - { offset: 0x18892, size: 0x8, addend: 0x0, symName: __ZN9__gnu_cxxneIPK12merged_agentSt6vectorIS1_SaIS1_EEEEbRKNS_17__normal_iteratorIT_T0_EESC_, symObjAddr: 0xBE84, symBinAddr: 0x10000EB00, symSize: 0x44 }
  - { offset: 0x188E2, size: 0x8, addend: 0x0, symName: __ZSt3minImERKT_S2_S2_, symObjAddr: 0xBE4C, symBinAddr: 0x10000EAC8, symSize: 0x38 }
  - { offset: 0x1893C, size: 0x8, addend: 0x0, symName: __ZNSt15__new_allocatorISt13_Rb_tree_nodeIxEE10deallocateEPS1_m, symObjAddr: 0xBE10, symBinAddr: 0x10000EA8C, symSize: 0x3C }
  - { offset: 0x189B0, size: 0x8, addend: 0x0, symName: __ZN9__gnu_cxx16__aligned_membufIxE6_M_ptrEv, symObjAddr: 0xBDF4, symBinAddr: 0x10000EA70, symSize: 0x1C }
  - { offset: 0x189D5, size: 0x8, addend: 0x0, symName: __ZSt4copyIN9__gnu_cxx17__normal_iteratorIPKxSt6vectorIxSaIxEEEEPxET0_T_SA_S9_, symObjAddr: 0xBDAC, symBinAddr: 0x10000EA28, symSize: 0x48 }
  - { offset: 0x18A4A, size: 0x8, addend: 0x0, symName: __ZSt16__do_uninit_copyIN9__gnu_cxx17__normal_iteratorIPK5agentSt6vectorIS2_SaIS2_EEEEPS2_ET0_T_SB_SA_, symObjAddr: 0xBD04, symBinAddr: 0x10000E980, symSize: 0xA8 }
  - { offset: 0x18ACC, size: 0x8, addend: 0x0, symName: __ZSt14__relocate_a_1IP5agentS1_SaIS0_EET0_T_S4_S3_RT1_, symObjAddr: 0xBC80, symBinAddr: 0x10000E8FC, symSize: 0x84 }
  - { offset: 0x18B50, size: 0x8, addend: 0x0, symName: __ZSt12__niter_baseIP5agentET_S2_, symObjAddr: 0xBC6C, symBinAddr: 0x10000E8E8, symSize: 0x14 }
  - { offset: 0x18B86, size: 0x8, addend: 0x0, symName: __ZNSt15__new_allocatorI5agentE8allocateEmPKv, symObjAddr: 0xBBD4, symBinAddr: 0x10000E850, symSize: 0x98 }
  - { offset: 0x18C0C, size: 0x8, addend: 0x0, symName: __ZNSt6vectorI5agentSaIS0_EE11_S_max_sizeERKS1_, symObjAddr: 0xBB70, symBinAddr: 0x10000E7EC, symSize: 0x64 }
  - { offset: 0x18CC1, size: 0x8, addend: 0x0, symName: __ZSt8_DestroyI5agentEvPT_, symObjAddr: 0xBB50, symBinAddr: 0x10000E7CC, symSize: 0x20 }
  - { offset: 0x18CF1, size: 0x8, addend: 0x0, symName: __ZSt11__addressofI5agentEPT_RS1_, symObjAddr: 0xBB3C, symBinAddr: 0x10000E7B8, symSize: 0x14 }
  - { offset: 0x18D21, size: 0x8, addend: 0x0, symName: __ZSt14__relocate_a_1IP6serverS1_SaIS0_EET0_T_S4_S3_RT1_, symObjAddr: 0xBAB8, symBinAddr: 0x10000E734, symSize: 0x84 }
  - { offset: 0x18DA5, size: 0x8, addend: 0x0, symName: __ZSt12__niter_baseIP6serverET_S2_, symObjAddr: 0xBAA4, symBinAddr: 0x10000E720, symSize: 0x14 }
  - { offset: 0x18DDB, size: 0x8, addend: 0x0, symName: __ZNSt15__new_allocatorI6serverE8allocateEmPKv, symObjAddr: 0xBA28, symBinAddr: 0x10000E6A4, symSize: 0x7C }
  - { offset: 0x18E66, size: 0x8, addend: 0x0, symName: __ZNKSt12_Vector_baseI6serverSaIS0_EE19_M_get_Tp_allocatorEv, symObjAddr: 0xBA14, symBinAddr: 0x10000E690, symSize: 0x14 }
  - { offset: 0x18E8B, size: 0x8, addend: 0x0, symName: __ZNSt6vectorI6serverSaIS0_EE11_S_max_sizeERKS1_, symObjAddr: 0xB9C0, symBinAddr: 0x10000E63C, symSize: 0x54 }
  - { offset: 0x18F40, size: 0x8, addend: 0x0, symName: __ZSt8_DestroyI6serverEvPT_, symObjAddr: 0xB9A0, symBinAddr: 0x10000E61C, symSize: 0x20 }
  - { offset: 0x18F70, size: 0x8, addend: 0x0, symName: __ZSt11__addressofI6serverEPT_RS1_, symObjAddr: 0xB98C, symBinAddr: 0x10000E608, symSize: 0x14 }
  - { offset: 0x18FA0, size: 0x8, addend: 0x0, symName: __ZSt14__relocate_a_1IxxENSt9enable_ifIXsrSt24__is_bitwise_relocatableIT_vE5valueEPS2_E4typeES4_S4_S4_RSaIT0_E, symObjAddr: 0xB928, symBinAddr: 0x10000E5A4, symSize: 0x64 }
  - { offset: 0x19020, size: 0x8, addend: 0x0, symName: __ZNSt8_Rb_treeIxxSt9_IdentityIxESt4lessIxESaIxEE14_M_create_nodeIJRKxEEEPSt13_Rb_tree_nodeIxEDpOT_, symObjAddr: 0xB8E8, symBinAddr: 0x10000E564, symSize: 0x40 }
  - { offset: 0x1907D, size: 0x8, addend: 0x0, symName: __ZSt7forwardIRPSt13_Rb_tree_nodeIxEEOT_RNSt16remove_referenceIS4_E4typeE, symObjAddr: 0xB8D4, symBinAddr: 0x10000E550, symSize: 0x14 }
  - { offset: 0x190B2, size: 0x8, addend: 0x0, symName: __ZNKSt10_Select1stISt4pairIKxSt3setIxSt4lessIxESaIxEEEEclERKS7_, symObjAddr: 0xB8BC, symBinAddr: 0x10000E538, symSize: 0x18 }
  - { offset: 0x190ED, size: 0x8, addend: 0x0, symName: __ZSt7forwardIRPSt18_Rb_tree_node_baseEOT_RNSt16remove_referenceIS3_E4typeE, symObjAddr: 0xB8A8, symBinAddr: 0x10000E524, symSize: 0x14 }
  - { offset: 0x1916A, size: 0x8, addend: 0x0, symName: __ZNSt4pairIPSt18_Rb_tree_node_baseS1_EC1IRPSt13_Rb_tree_nodeIS_IKxSt3setIxSt4lessIxESaIxEEEERS1_Lb1EEEOT_OT0_, symObjAddr: 0xB860, symBinAddr: 0x10000E4DC, symSize: 0x48 }
  - { offset: 0x191B4, size: 0x8, addend: 0x0, symName: __ZNSt8_Rb_treeIxSt4pairIKxSt3setIxSt4lessIxESaIxEEESt10_Select1stIS7_ES4_SaIS7_EE5beginEv, symObjAddr: 0xB838, symBinAddr: 0x10000E4B4, symSize: 0x28 }
  - { offset: 0x191DE, size: 0x8, addend: 0x0, symName: __ZNSt8_Rb_treeIxSt4pairIKxSt3setIxSt4lessIxESaIxEEESt10_Select1stIS7_ES4_SaIS7_EE17_M_construct_nodeIJRKSt21piecewise_construct_tSt5tupleIJRS1_EESG_IJEEEEEvPSt13_Rb_tree_nodeIS7_EDpOT_, symObjAddr: 0xB6BC, symBinAddr: 0x10000E338, symSize: 0x17C }
  - { offset: 0x192DE, size: 0x8, addend: 0x0, symName: __ZNSt8_Rb_treeIxSt4pairIKxSt3setIxSt4lessIxESaIxEEESt10_Select1stIS7_ES4_SaIS7_EE11_M_get_nodeEv, symObjAddr: 0xB680, symBinAddr: 0x10000E2FC, symSize: 0x3C }
  - { offset: 0x19339, size: 0x8, addend: 0x0, symName: __ZN9__gnu_cxx16__aligned_membufISt4pairIKxSt3setIxSt4lessIxESaIxEEEE7_M_addrEv, symObjAddr: 0xB66C, symBinAddr: 0x10000E2E8, symSize: 0x14 }
  - { offset: 0x1935E, size: 0x8, addend: 0x0, symName: __ZSt16__do_uninit_copyIP12merged_agentS1_ET0_T_S3_S2_, symObjAddr: 0xB5D8, symBinAddr: 0x10000E254, symSize: 0x94 }
  - { offset: 0x193C5, size: 0x8, addend: 0x0, symName: __ZSt14__copy_move_a2ILb0EP12merged_agentS1_ET1_T0_S3_S2_, symObjAddr: 0xB5AC, symBinAddr: 0x10000E228, symSize: 0x2C }
  - { offset: 0x1942E, size: 0x8, addend: 0x0, symName: __ZNK9__gnu_cxx17__normal_iteratorIP12merged_agentSt6vectorIS1_SaIS1_EEEdeEv, symObjAddr: 0xB594, symBinAddr: 0x10000E210, symSize: 0x18 }
  - { offset: 0x19458, size: 0x8, addend: 0x0, symName: __ZN9__gnu_cxx17__normal_iteratorIP12merged_agentSt6vectorIS1_SaIS1_EEEppEv, symObjAddr: 0xB56C, symBinAddr: 0x10000E1E8, symSize: 0x28 }
  - { offset: 0x19483, size: 0x8, addend: 0x0, symName: __ZN9__gnu_cxxneIP12merged_agentSt6vectorIS1_SaIS1_EEEEbRKNS_17__normal_iteratorIT_T0_EESB_, symObjAddr: 0xB528, symBinAddr: 0x10000E1A4, symSize: 0x44 }
  - { offset: 0x194D2, size: 0x8, addend: 0x0, symName: __ZNK9__gnu_cxx17__normal_iteratorIP12merged_agentSt6vectorIS1_SaIS1_EEEplEl, symObjAddr: 0xB4DC, symBinAddr: 0x10000E158, symSize: 0x4C }
  - { offset: 0x19507, size: 0x8, addend: 0x0, symName: __ZSt14__copy_move_a2ILb0EPK12merged_agentPS0_ET1_T0_S5_S4_, symObjAddr: 0xB4B0, symBinAddr: 0x10000E12C, symSize: 0x2C }
  - { offset: 0x19570, size: 0x8, addend: 0x0, symName: __ZNK9__gnu_cxx17__normal_iteratorIPK12merged_agentSt6vectorIS1_SaIS1_EEE4baseEv, symObjAddr: 0xB49C, symBinAddr: 0x10000E118, symSize: 0x14 }
  - { offset: 0x195F9, size: 0x8, addend: 0x0, symName: __ZNSt8_Rb_treeIxSt4pairIKxSt3setIxSt4lessIxESaIxEEESt10_Select1stIS7_ES4_SaIS7_EE21_M_get_Node_allocatorEv, symObjAddr: 0xB488, symBinAddr: 0x10000E104, symSize: 0x14 }
  - { offset: 0x1961E, size: 0x8, addend: 0x0, symName: __ZSt14__relocate_a_1IP12merged_agentS1_SaIS0_EET0_T_S4_S3_RT1_, symObjAddr: 0xB404, symBinAddr: 0x10000E080, symSize: 0x84 }
  - { offset: 0x196A7, size: 0x8, addend: 0x0, symName: __ZNSt15__new_allocatorI12merged_agentE8allocateEmPKv, symObjAddr: 0xB374, symBinAddr: 0x10000DFF0, symSize: 0x90 }
  - { offset: 0x1972D, size: 0x8, addend: 0x0, symName: __ZNSt6vectorI12merged_agentSaIS0_EE11_S_max_sizeERKS1_, symObjAddr: 0xB318, symBinAddr: 0x10000DF94, symSize: 0x5C }
  - { offset: 0x197E7, size: 0x8, addend: 0x0, symName: __ZNSt17_Rb_tree_iteratorIxEppEv, symObjAddr: 0xB2E8, symBinAddr: 0x10000DF64, symSize: 0x30 }
  - { offset: 0x19811, size: 0x8, addend: 0x0, symName: __ZNKSt23_Rb_tree_const_iteratorIxE13_M_const_castEv, symObjAddr: 0xB2C0, symBinAddr: 0x10000DF3C, symSize: 0x28 }
  - { offset: 0x1983B, size: 0x8, addend: 0x0, symName: __ZNSt8_Rb_treeIxxSt9_IdentityIxESt4lessIxESaIxEE20_Reuse_or_alloc_nodeclIRKxEEPSt13_Rb_tree_nodeIxEOT_, symObjAddr: 0xB230, symBinAddr: 0x10000DEAC, symSize: 0x90 }
  - { offset: 0x1988A, size: 0x8, addend: 0x0, symName: __ZSt25__unguarded_linear_insertIN9__gnu_cxx17__normal_iteratorIP11merged_pairSt6vectorIS2_SaIS2_EEEENS0_5__ops14_Val_comp_iterIPFbRKS2_SB_EEEEvT_T0_, symObjAddr: 0xB154, symBinAddr: 0x10000DDD0, symSize: 0xDC }
  - { offset: 0x198F6, size: 0x8, addend: 0x0, symName: __ZN9__gnu_cxx5__ops15__val_comp_iterIPFbRK11merged_pairS4_EEENS0_14_Val_comp_iterIT_EENS0_15_Iter_comp_iterIS8_EE, symObjAddr: 0xB128, symBinAddr: 0x10000DDA4, symSize: 0x2C }
  - { offset: 0x19926, size: 0x8, addend: 0x0, symName: __ZSt13move_backwardIN9__gnu_cxx17__normal_iteratorIP11merged_pairSt6vectorIS2_SaIS2_EEEES7_ET0_T_S9_S8_, symObjAddr: 0xB0E0, symBinAddr: 0x10000DD5C, symSize: 0x48 }
  - { offset: 0x19986, size: 0x8, addend: 0x0, symName: __ZSt4moveIR11merged_pairEONSt16remove_referenceIT_E4typeEOS3_, symObjAddr: 0xB0CC, symBinAddr: 0x10000DD48, symSize: 0x14 }
  - { offset: 0x199BB, size: 0x8, addend: 0x0, symName: __ZN9__gnu_cxx5__ops15_Iter_comp_iterIPFbRK11merged_pairS4_EEclINS_17__normal_iteratorIPS2_St6vectorIS2_SaIS2_EEEESE_EEbT_T0_, symObjAddr: 0xB080, symBinAddr: 0x10000DCFC, symSize: 0x4C }
  - { offset: 0x19A10, size: 0x8, addend: 0x0, symName: __ZN9__gnu_cxxeqIP11merged_pairSt6vectorIS1_SaIS1_EEEEbRKNS_17__normal_iteratorIT_T0_EESB_, symObjAddr: 0xB03C, symBinAddr: 0x10000DCB8, symSize: 0x44 }
  - { offset: 0x19A5A, size: 0x8, addend: 0x0, symName: __ZSt21__unguarded_partitionIN9__gnu_cxx17__normal_iteratorIP11merged_pairSt6vectorIS2_SaIS2_EEEENS0_5__ops15_Iter_comp_iterIPFbRKS2_SB_EEEET_SF_SF_SF_T0_, symObjAddr: 0xAF84, symBinAddr: 0x10000DC00, symSize: 0xB8 }
  - { offset: 0x19AC4, size: 0x8, addend: 0x0, symName: __ZSt22__move_median_to_firstIN9__gnu_cxx17__normal_iteratorIP11merged_pairSt6vectorIS2_SaIS2_EEEENS0_5__ops15_Iter_comp_iterIPFbRKS2_SB_EEEEvT_SF_SF_SF_T0_, symObjAddr: 0xAE74, symBinAddr: 0x10000DAF0, symSize: 0x110 }
  - { offset: 0x19B3E, size: 0x8, addend: 0x0, symName: __ZNK9__gnu_cxx17__normal_iteratorIP11merged_pairSt6vectorIS1_SaIS1_EEEmiEl, symObjAddr: 0xAE30, symBinAddr: 0x10000DAAC, symSize: 0x44 }
  - { offset: 0x19B73, size: 0x8, addend: 0x0, symName: __ZSt11__sort_heapIN9__gnu_cxx17__normal_iteratorIP11merged_pairSt6vectorIS2_SaIS2_EEEENS0_5__ops15_Iter_comp_iterIPFbRKS2_SB_EEEEvT_SF_RT0_, symObjAddr: 0xADC8, symBinAddr: 0x10000DA44, symSize: 0x68 }
  - { offset: 0x19BCD, size: 0x8, addend: 0x0, symName: __ZSt13__heap_selectIN9__gnu_cxx17__normal_iteratorIP11merged_pairSt6vectorIS2_SaIS2_EEEENS0_5__ops15_Iter_comp_iterIPFbRKS2_SB_EEEEvT_SF_SF_T0_, symObjAddr: 0xAD2C, symBinAddr: 0x10000D9A8, symSize: 0x9C }
  - { offset: 0x19C5B, size: 0x8, addend: 0x0, symName: __ZSt13__countl_zeroImEiT_, symObjAddr: 0xACD8, symBinAddr: 0x10000D954, symSize: 0x54 }
  - { offset: 0x19CF3, size: 0x8, addend: 0x0, symName: __ZNSt15__new_allocatorIxE8allocateEmPKv, symObjAddr: 0xAC5C, symBinAddr: 0x10000D8D8, symSize: 0x7C }
  - { offset: 0x19D79, size: 0x8, addend: 0x0, symName: __ZNSt6vectorIxSaIxEE11_S_max_sizeERKS0_, symObjAddr: 0xAC08, symBinAddr: 0x10000D884, symSize: 0x54 }
  - { offset: 0x19E2E, size: 0x8, addend: 0x0, symName: __ZNSt22__uninitialized_fill_nILb1EE15__uninit_fill_nIPxmxEET_S3_T0_RKT1_, symObjAddr: 0xABDC, symBinAddr: 0x10000D858, symSize: 0x2C }
  - { offset: 0x19E91, size: 0x8, addend: 0x0, symName: __ZSt9__fill_a1IPxxEN9__gnu_cxx11__enable_ifIXsrSt11__is_scalarIT0_E7__valueEvE6__typeET_S8_RKS4_, symObjAddr: 0xAB84, symBinAddr: 0x10000D800, symSize: 0x58 }
  - { offset: 0x19EFC, size: 0x8, addend: 0x0, symName: __ZSt12__niter_wrapIPxET_RKS1_S1_, symObjAddr: 0xAB6C, symBinAddr: 0x10000D7E8, symSize: 0x18 }
  - { offset: 0x19F36, size: 0x8, addend: 0x0, symName: __ZSt23__copy_move_backward_a1ILb1EPxS0_ET1_T0_S2_S1_, symObjAddr: 0xAB40, symBinAddr: 0x10000D7BC, symSize: 0x2C }
  - { offset: 0x19F9A, size: 0x8, addend: 0x0, symName: __ZSt12__niter_baseIPxET_S1_, symObjAddr: 0xAB2C, symBinAddr: 0x10000D7A8, symSize: 0x14 }
  - { offset: 0x19FCB, size: 0x8, addend: 0x0, symName: __ZSt18uninitialized_copyISt13move_iteratorIPxES1_ET0_T_S4_S3_, symObjAddr: 0xAAF0, symBinAddr: 0x10000D76C, symSize: 0x3C }
  - { offset: 0x1A06F, size: 0x8, addend: 0x0, symName: __ZNSt13move_iteratorIPxEC1ES0_, symObjAddr: 0xAAC0, symBinAddr: 0x10000D73C, symSize: 0x30 }
  - { offset: 0x1A0A5, size: 0x8, addend: 0x0, symName: __ZSt4moveIRPxEONSt16remove_referenceIT_E4typeEOS3_, symObjAddr: 0xAAAC, symBinAddr: 0x10000D728, symSize: 0x14 }
  - { offset: 0x1A101, size: 0x8, addend: 0x0, symName: __ZSt11__addressofIxEPT_RS0_, symObjAddr: 0xAA98, symBinAddr: 0x10000D714, symSize: 0x14 }
  - { offset: 0x1A131, size: 0x8, addend: 0x0, symName: __ZSt8_DestroyI12merged_agentEvPT_, symObjAddr: 0xAA78, symBinAddr: 0x10000D6F4, symSize: 0x20 }
  - { offset: 0x1A161, size: 0x8, addend: 0x0, symName: __ZSt11__addressofI12merged_agentEPT_RS1_, symObjAddr: 0xAA64, symBinAddr: 0x10000D6E0, symSize: 0x14 }
  - { offset: 0x1A191, size: 0x8, addend: 0x0, symName: __ZSt16__do_uninit_copyIN9__gnu_cxx17__normal_iteratorIPK12merged_agentSt6vectorIS2_SaIS2_EEEEPS2_ET0_T_SB_SA_, symObjAddr: 0xA9BC, symBinAddr: 0x10000D638, symSize: 0xA8 }
  - { offset: 0x1A1F8, size: 0x8, addend: 0x0, symName: __ZSt14__relocate_a_1I11merged_pairS0_ENSt9enable_ifIXsrSt24__is_bitwise_relocatableIT_vE5valueEPS3_E4typeES5_S5_S5_RSaIT0_E, symObjAddr: 0xA958, symBinAddr: 0x10000D5D4, symSize: 0x64 }
  - { offset: 0x1A273, size: 0x8, addend: 0x0, symName: __ZSt12__niter_baseIP11merged_pairET_S2_, symObjAddr: 0xA944, symBinAddr: 0x10000D5C0, symSize: 0x14 }
  - { offset: 0x1A2A9, size: 0x8, addend: 0x0, symName: __ZNSt15__new_allocatorI11merged_pairE8allocateEmPKv, symObjAddr: 0xA8C8, symBinAddr: 0x10000D544, symSize: 0x7C }
  - { offset: 0x1A334, size: 0x8, addend: 0x0, symName: __ZNKSt12_Vector_baseI11merged_pairSaIS0_EE19_M_get_Tp_allocatorEv, symObjAddr: 0xA8B4, symBinAddr: 0x10000D530, symSize: 0x14 }
  - { offset: 0x1A359, size: 0x8, addend: 0x0, symName: __ZNSt6vectorI11merged_pairSaIS0_EE11_S_max_sizeERKS1_, symObjAddr: 0xA860, symBinAddr: 0x10000D4DC, symSize: 0x54 }
  - { offset: 0x1A472, size: 0x8, addend: 0x0, symName: __ZNSt13_Rb_tree_nodeIxE9_M_valptrEv, symObjAddr: 0xA840, symBinAddr: 0x10000D4BC, symSize: 0x20 }
  - { offset: 0x1A4A2, size: 0x8, addend: 0x0, symName: __ZNSt8_Rb_treeIxxSt9_IdentityIxESt4lessIxESaIxEE13_M_clone_nodeILb0ENS5_11_Alloc_nodeEEEPSt13_Rb_tree_nodeIxESA_RT0_, symObjAddr: 0xA7E4, symBinAddr: 0x10000D460, symSize: 0x5C }
  - { offset: 0x1A50B, size: 0x8, addend: 0x0, symName: __ZNSt20__uninitialized_copyILb1EE13__uninit_copyIN9__gnu_cxx17__normal_iteratorIPKxSt6vectorIxSaIxEEEEPxEET0_T_SC_SB_, symObjAddr: 0xA7B8, symBinAddr: 0x10000D434, symSize: 0x2C }
  - { offset: 0x1A585, size: 0x8, addend: 0x0, symName: __ZNSt20__uninitialized_copyILb0EE13__uninit_copyIN9__gnu_cxx17__normal_iteratorIPK5agentSt6vectorIS4_SaIS4_EEEEPS4_EET0_T_SD_SC_, symObjAddr: 0xA78C, symBinAddr: 0x10000D408, symSize: 0x2C }
  - { offset: 0x1A5FF, size: 0x8, addend: 0x0, symName: __ZSt12__relocate_aIP5agentS1_SaIS0_EET0_T_S4_S3_RT1_, symObjAddr: 0xA730, symBinAddr: 0x10000D3AC, symSize: 0x5C }
  - { offset: 0x1A69B, size: 0x8, addend: 0x0, symName: __ZNK9__gnu_cxx17__normal_iteratorIP5agentSt6vectorIS1_SaIS1_EEE4baseEv, symObjAddr: 0xA71C, symBinAddr: 0x10000D398, symSize: 0x14 }
  - { offset: 0x1A6ED, size: 0x8, addend: 0x0, symName: __ZN9__gnu_cxx17__normal_iteratorIP5agentSt6vectorIS1_SaIS1_EEEC1ERKS2_, symObjAddr: 0xA6F4, symBinAddr: 0x10000D370, symSize: 0x28 }
  - { offset: 0x1A71C, size: 0x8, addend: 0x0, symName: __ZNKSt6vectorI5agentSaIS0_EE8max_sizeEv, symObjAddr: 0xA6D4, symBinAddr: 0x10000D350, symSize: 0x20 }
  - { offset: 0x1A741, size: 0x8, addend: 0x0, symName: __ZNSt12_Destroy_auxILb0EE9__destroyIP5agentEEvT_S4_, symObjAddr: 0xA688, symBinAddr: 0x10000D304, symSize: 0x4C }
  - { offset: 0x1A785, size: 0x8, addend: 0x0, symName: __ZNSt15__new_allocatorI5agentE10deallocateEPS0_m, symObjAddr: 0xA64C, symBinAddr: 0x10000D2C8, symSize: 0x3C }
  - { offset: 0x1A7C8, size: 0x8, addend: 0x0, symName: __ZSt12__relocate_aIP6serverS1_SaIS0_EET0_T_S4_S3_RT1_, symObjAddr: 0xA5F0, symBinAddr: 0x10000D26C, symSize: 0x5C }
  - { offset: 0x1A864, size: 0x8, addend: 0x0, symName: __ZNK9__gnu_cxx17__normal_iteratorIP6serverSt6vectorIS1_SaIS1_EEE4baseEv, symObjAddr: 0xA5DC, symBinAddr: 0x10000D258, symSize: 0x14 }
  - { offset: 0x1A8B6, size: 0x8, addend: 0x0, symName: __ZN9__gnu_cxx17__normal_iteratorIP6serverSt6vectorIS1_SaIS1_EEEC1ERKS2_, symObjAddr: 0xA5B4, symBinAddr: 0x10000D230, symSize: 0x28 }
  - { offset: 0x1A8E5, size: 0x8, addend: 0x0, symName: __ZNKSt6vectorI6serverSaIS0_EE8max_sizeEv, symObjAddr: 0xA594, symBinAddr: 0x10000D210, symSize: 0x20 }
  - { offset: 0x1A90A, size: 0x8, addend: 0x0, symName: __ZNSt12_Destroy_auxILb0EE9__destroyIP6serverEEvT_S4_, symObjAddr: 0xA548, symBinAddr: 0x10000D1C4, symSize: 0x4C }
  - { offset: 0x1A94E, size: 0x8, addend: 0x0, symName: __ZNSt15__new_allocatorI6serverE10deallocateEPS0_m, symObjAddr: 0xA518, symBinAddr: 0x10000D194, symSize: 0x30 }
  - { offset: 0x1A991, size: 0x8, addend: 0x0, symName: __ZSt12__relocate_aIPxS0_SaIxEET0_T_S3_S2_RT1_, symObjAddr: 0xA4BC, symBinAddr: 0x10000D138, symSize: 0x5C }
  - { offset: 0x1AA0A, size: 0x8, addend: 0x0, symName: __ZSt7forwardIbEOT_RNSt16remove_referenceIS0_E4typeE, symObjAddr: 0xA4A8, symBinAddr: 0x10000D124, symSize: 0x14 }
  - { offset: 0x1AA40, size: 0x8, addend: 0x0, symName: __ZSt7forwardISt17_Rb_tree_iteratorIxEEOT_RNSt16remove_referenceIS2_E4typeE, symObjAddr: 0xA494, symBinAddr: 0x10000D110, symSize: 0x14 }
  - { offset: 0x1AA80, size: 0x8, addend: 0x0, symName: __ZNKSt8_Rb_treeIxxSt9_IdentityIxESt4lessIxESaIxEE11_Alloc_nodeclIRKxEEPSt13_Rb_tree_nodeIxEOT_, symObjAddr: 0xA458, symBinAddr: 0x10000D0D4, symSize: 0x3C }
  - { offset: 0x1AAC3, size: 0x8, addend: 0x0, symName: __ZNSt17_Rb_tree_iteratorIxEmmEv, symObjAddr: 0xA428, symBinAddr: 0x10000D0A4, symSize: 0x30 }
  - { offset: 0x1AB35, size: 0x8, addend: 0x0, symName: __ZNSt4pairIPSt18_Rb_tree_node_baseS1_EC1IRPSt13_Rb_tree_nodeIxERS1_Lb1EEEOT_OT0_, symObjAddr: 0xA3E0, symBinAddr: 0x10000D05C, symSize: 0x48 }
  - { offset: 0x1AB7F, size: 0x8, addend: 0x0, symName: __ZNSt8_Rb_treeIxxSt9_IdentityIxESt4lessIxESaIxEE5beginEv, symObjAddr: 0xA3B8, symBinAddr: 0x10000D034, symSize: 0x28 }
  - { offset: 0x1ABA9, size: 0x8, addend: 0x0, symName: __ZNSt8_Rb_treeIxSt4pairIKxSt3setIxSt4lessIxESaIxEEESt10_Select1stIS7_ES4_SaIS7_EE14_M_insert_nodeEPSt18_Rb_tree_node_baseSD_PSt13_Rb_tree_nodeIS7_E, symObjAddr: 0xA2E8, symBinAddr: 0x10000CF64, symSize: 0xD0 }
  - { offset: 0x1AC0F, size: 0x8, addend: 0x0, symName: __ZNSt8_Rb_treeIxSt4pairIKxSt3setIxSt4lessIxESaIxEEESt10_Select1stIS7_ES4_SaIS7_EE6_S_keyEPKSt13_Rb_tree_nodeIS7_E, symObjAddr: 0xA2C0, symBinAddr: 0x10000CF3C, symSize: 0x28 }
  - { offset: 0x1AC3C, size: 0x8, addend: 0x0, symName: __ZNSt17_Rb_tree_iteratorISt4pairIKxSt3setIxSt4lessIxESaIxEEEEppEv, symObjAddr: 0xA290, symBinAddr: 0x10000CF0C, symSize: 0x30 }
  - { offset: 0x1AC66, size: 0x8, addend: 0x0, symName: __ZNSt17_Rb_tree_iteratorISt4pairIKxSt3setIxSt4lessIxESaIxEEEEmmEv, symObjAddr: 0xA260, symBinAddr: 0x10000CEDC, symSize: 0x30 }
  - { offset: 0x1ACD8, size: 0x8, addend: 0x0, symName: __ZNSt4pairIPSt18_Rb_tree_node_baseS1_EC1IRS1_S4_Lb1EEEOT_OT0_, symObjAddr: 0xA218, symBinAddr: 0x10000CE94, symSize: 0x48 }
  - { offset: 0x1AD22, size: 0x8, addend: 0x0, symName: __ZNSt8_Rb_treeIxSt4pairIKxSt3setIxSt4lessIxESaIxEEESt10_Select1stIS7_ES4_SaIS7_EE11_M_leftmostEv, symObjAddr: 0xA200, symBinAddr: 0x10000CE7C, symSize: 0x18 }
  - { offset: 0x1AD4C, size: 0x8, addend: 0x0, symName: __ZNSt8_Rb_treeIxSt4pairIKxSt3setIxSt4lessIxESaIxEEESt10_Select1stIS7_ES4_SaIS7_EE24_M_get_insert_unique_posERS1_, symObjAddr: 0xA0A8, symBinAddr: 0x10000CD24, symSize: 0x158 }
  - { offset: 0x1AE17, size: 0x8, addend: 0x0, symName: __ZNSt4pairIPSt18_Rb_tree_node_baseS1_EC1IS1_S1_Lb1EEERKS1_S5_, symObjAddr: 0xA06C, symBinAddr: 0x10000CCE8, symSize: 0x3C }
  - { offset: 0x1AE5C, size: 0x8, addend: 0x0, symName: __ZNSt8_Rb_treeIxSt4pairIKxSt3setIxSt4lessIxESaIxEEESt10_Select1stIS7_ES4_SaIS7_EE6_S_keyEPKSt18_Rb_tree_node_base, symObjAddr: 0xA050, symBinAddr: 0x10000CCCC, symSize: 0x1C }
  - { offset: 0x1AE89, size: 0x8, addend: 0x0, symName: __ZNSt8_Rb_treeIxSt4pairIKxSt3setIxSt4lessIxESaIxEEESt10_Select1stIS7_ES4_SaIS7_EE12_M_rightmostEv, symObjAddr: 0xA038, symBinAddr: 0x10000CCB4, symSize: 0x18 }
  - { offset: 0x1AEB3, size: 0x8, addend: 0x0, symName: __ZNKSt8_Rb_treeIxSt4pairIKxSt3setIxSt4lessIxESaIxEEESt10_Select1stIS7_ES4_SaIS7_EE4sizeEv, symObjAddr: 0xA020, symBinAddr: 0x10000CC9C, symSize: 0x18 }
  - { offset: 0x1AEDD, size: 0x8, addend: 0x0, symName: __ZNKSt23_Rb_tree_const_iteratorISt4pairIKxSt3setIxSt4lessIxESaIxEEEE13_M_const_castEv, symObjAddr: 0x9FF8, symBinAddr: 0x10000CC74, symSize: 0x28 }
  - { offset: 0x1AF07, size: 0x8, addend: 0x0, symName: __ZNSt8_Rb_treeIxSt4pairIKxSt3setIxSt4lessIxESaIxEEESt10_Select1stIS7_ES4_SaIS7_EE14_M_create_nodeIJRKSt21piecewise_construct_tSt5tupleIJRS1_EESG_IJEEEEEPSt13_Rb_tree_nodeIS7_EDpOT_, symObjAddr: 0x9F88, symBinAddr: 0x10000CC04, symSize: 0x70 }
  - { offset: 0x1AFA0, size: 0x8, addend: 0x0, symName: __ZNSt10_Head_baseILm0ERKxLb0EEC2ES1_, symObjAddr: 0x9F64, symBinAddr: 0x10000CBE0, symSize: 0x24 }
  - { offset: 0x1AFCF, size: 0x8, addend: 0x0, symName: __ZN9__gnu_cxx16__aligned_membufISt4pairIKxSt3setIxSt4lessIxESaIxEEEE6_M_ptrEv, symObjAddr: 0x9F48, symBinAddr: 0x10000CBC4, symSize: 0x1C }
  - { offset: 0x1AFF9, size: 0x8, addend: 0x0, symName: __ZNSt8_Rb_treeIxSt4pairIKxSt3setIxSt4lessIxESaIxEEESt10_Select1stIS7_ES4_SaIS7_EE14_M_lower_boundEPSt13_Rb_tree_nodeIS7_EPSt18_Rb_tree_node_baseRS1_, symObjAddr: 0x9EAC, symBinAddr: 0x10000CB28, symSize: 0x9C }
  - { offset: 0x1B053, size: 0x8, addend: 0x0, symName: __ZNSt8_Rb_treeIxSt4pairIKxSt3setIxSt4lessIxESaIxEEESt10_Select1stIS7_ES4_SaIS7_EE6_M_endEv, symObjAddr: 0x9E94, symBinAddr: 0x10000CB10, symSize: 0x18 }
  - { offset: 0x1B078, size: 0x8, addend: 0x0, symName: __ZNSt20__uninitialized_copyILb0EE13__uninit_copyIP12merged_agentS3_EET0_T_S5_S4_, symObjAddr: 0x9E68, symBinAddr: 0x10000CAE4, symSize: 0x2C }
  - { offset: 0x1B0CF, size: 0x8, addend: 0x0, symName: __ZSt12__niter_wrapIP12merged_agentET_RKS2_S2_, symObjAddr: 0x9E50, symBinAddr: 0x10000CACC, symSize: 0x18 }
  - { offset: 0x1B109, size: 0x8, addend: 0x0, symName: __ZSt14__copy_move_a1ILb0EP12merged_agentS1_ET1_T0_S3_S2_, symObjAddr: 0x9E24, symBinAddr: 0x10000CAA0, symSize: 0x2C }
  - { offset: 0x1B16D, size: 0x8, addend: 0x0, symName: __ZSt12__niter_baseIP12merged_agentET_S2_, symObjAddr: 0x9E10, symBinAddr: 0x10000CA8C, symSize: 0x14 }
  - { offset: 0x1B19E, size: 0x8, addend: 0x0, symName: __ZNSt12_Destroy_auxILb0EE9__destroyIN9__gnu_cxx17__normal_iteratorIP12merged_agentSt6vectorIS4_SaIS4_EEEEEEvT_SA_, symObjAddr: 0x9DBC, symBinAddr: 0x10000CA38, symSize: 0x54 }
  - { offset: 0x1B1DD, size: 0x8, addend: 0x0, symName: __ZSt12__niter_wrapIN9__gnu_cxx17__normal_iteratorIP12merged_agentSt6vectorIS2_SaIS2_EEEES3_ET_S8_T0_, symObjAddr: 0x9D68, symBinAddr: 0x10000C9E4, symSize: 0x54 }
  - { offset: 0x1B227, size: 0x8, addend: 0x0, symName: __ZSt14__copy_move_a1ILb0EPK12merged_agentPS0_ET1_T0_S5_S4_, symObjAddr: 0x9D3C, symBinAddr: 0x10000C9B8, symSize: 0x2C }
  - { offset: 0x1B28B, size: 0x8, addend: 0x0, symName: __ZSt12__niter_baseIP12merged_agentSt6vectorIS0_SaIS0_EEET_N9__gnu_cxx17__normal_iteratorIS5_T0_EE, symObjAddr: 0x9D1C, symBinAddr: 0x10000C998, symSize: 0x20 }
  - { offset: 0x1B2C5, size: 0x8, addend: 0x0, symName: __ZSt12__niter_baseIPK12merged_agentSt6vectorIS0_SaIS0_EEET_N9__gnu_cxx17__normal_iteratorIS6_T0_EE, symObjAddr: 0x9CFC, symBinAddr: 0x10000C978, symSize: 0x20 }
  - { offset: 0x1B304, size: 0x8, addend: 0x0, symName: __ZNSt8_Rb_treeIxSt4pairIKxSt3setIxSt4lessIxESaIxEEESt10_Select1stIS7_ES4_SaIS7_EE11_M_put_nodeEPSt13_Rb_tree_nodeIS7_E, symObjAddr: 0x9CB0, symBinAddr: 0x10000C92C, symSize: 0x4C }
  - { offset: 0x1B374, size: 0x8, addend: 0x0, symName: __ZNSt8_Rb_treeIxSt4pairIKxSt3setIxSt4lessIxESaIxEEESt10_Select1stIS7_ES4_SaIS7_EE15_M_destroy_nodeEPSt13_Rb_tree_nodeIS7_E, symObjAddr: 0x9C50, symBinAddr: 0x10000C8CC, symSize: 0x60 }
  - { offset: 0x1B40C, size: 0x8, addend: 0x0, symName: __ZNK9__gnu_cxx16__aligned_membufISt4pairIKxSt3setIxSt4lessIxESaIxEEEE7_M_addrEv, symObjAddr: 0x9C3C, symBinAddr: 0x10000C8B8, symSize: 0x14 }
  - { offset: 0x1B431, size: 0x8, addend: 0x0, symName: __ZSt12__relocate_aIP12merged_agentS1_SaIS0_EET0_T_S4_S3_RT1_, symObjAddr: 0x9BE0, symBinAddr: 0x10000C85C, symSize: 0x5C }
  - { offset: 0x1B4CD, size: 0x8, addend: 0x0, symName: __ZNK9__gnu_cxx17__normal_iteratorIP12merged_agentSt6vectorIS1_SaIS1_EEE4baseEv, symObjAddr: 0x9BCC, symBinAddr: 0x10000C848, symSize: 0x14 }
  - { offset: 0x1B4F7, size: 0x8, addend: 0x0, symName: __ZNKSt6vectorI12merged_agentSaIS0_EE8max_sizeEv, symObjAddr: 0x9BAC, symBinAddr: 0x10000C828, symSize: 0x20 }
  - { offset: 0x1B521, size: 0x8, addend: 0x0, symName: __ZNSt8_Rb_treeIxxSt9_IdentityIxESt4lessIxESaIxEE29_M_get_insert_hint_unique_posESt23_Rb_tree_const_iteratorIxERKx, symObjAddr: 0x9888, symBinAddr: 0x10000C504, symSize: 0x324 }
  - { offset: 0x1B5D0, size: 0x8, addend: 0x0, symName: __ZNSt8_Rb_treeIxxSt9_IdentityIxESt4lessIxESaIxEE13_M_clone_nodeILb0ENS5_20_Reuse_or_alloc_nodeEEEPSt13_Rb_tree_nodeIxESA_RT0_, symObjAddr: 0x982C, symBinAddr: 0x10000C4A8, symSize: 0x5C }
  - { offset: 0x1B639, size: 0x8, addend: 0x0, symName: __ZSt26__unguarded_insertion_sortIN9__gnu_cxx17__normal_iteratorIP11merged_pairSt6vectorIS2_SaIS2_EEEENS0_5__ops15_Iter_comp_iterIPFbRKS2_SB_EEEEvT_SF_T0_, symObjAddr: 0x97C8, symBinAddr: 0x10000C444, symSize: 0x64 }
  - { offset: 0x1B6B7, size: 0x8, addend: 0x0, symName: __ZSt16__insertion_sortIN9__gnu_cxx17__normal_iteratorIP11merged_pairSt6vectorIS2_SaIS2_EEEENS0_5__ops15_Iter_comp_iterIPFbRKS2_SB_EEEEvT_SF_T0_, symObjAddr: 0x96B4, symBinAddr: 0x10000C330, symSize: 0x114 }
  - { offset: 0x1B75F, size: 0x8, addend: 0x0, symName: __ZNK9__gnu_cxx17__normal_iteratorIP11merged_pairSt6vectorIS1_SaIS1_EEEplEl, symObjAddr: 0x9674, symBinAddr: 0x10000C2F0, symSize: 0x40 }
  - { offset: 0x1B794, size: 0x8, addend: 0x0, symName: __ZSt27__unguarded_partition_pivotIN9__gnu_cxx17__normal_iteratorIP11merged_pairSt6vectorIS2_SaIS2_EEEENS0_5__ops15_Iter_comp_iterIPFbRKS2_SB_EEEET_SF_SF_T0_, symObjAddr: 0x95D8, symBinAddr: 0x10000C254, symSize: 0x9C }
  - { offset: 0x1B7FF, size: 0x8, addend: 0x0, symName: __ZSt14__partial_sortIN9__gnu_cxx17__normal_iteratorIP11merged_pairSt6vectorIS2_SaIS2_EEEENS0_5__ops15_Iter_comp_iterIPFbRKS2_SB_EEEEvT_SF_SF_T0_, symObjAddr: 0x958C, symBinAddr: 0x10000C208, symSize: 0x4C }
  - { offset: 0x1B869, size: 0x8, addend: 0x0, symName: __ZSt11__bit_widthImEiT_, symObjAddr: 0x955C, symBinAddr: 0x10000C1D8, symSize: 0x30 }
  - { offset: 0x1B8AB, size: 0x8, addend: 0x0, symName: __ZSt32__make_move_if_noexcept_iteratorIxSt13move_iteratorIPxEET0_PT_, symObjAddr: 0x9538, symBinAddr: 0x10000C1B4, symSize: 0x24 }
  - { offset: 0x1B90E, size: 0x8, addend: 0x0, symName: __ZNKSt6vectorIxSaIxEE8max_sizeEv, symObjAddr: 0x9518, symBinAddr: 0x10000C194, symSize: 0x20 }
  - { offset: 0x1B933, size: 0x8, addend: 0x0, symName: __ZSt20uninitialized_fill_nIPxmxET_S1_T0_RKT1_, symObjAddr: 0x94E4, symBinAddr: 0x10000C160, symSize: 0x34 }
  - { offset: 0x1B9A7, size: 0x8, addend: 0x0, symName: __ZSt8__fill_aIPxxEvT_S1_RKT0_, symObjAddr: 0x94B4, symBinAddr: 0x10000C130, symSize: 0x30 }
  - { offset: 0x1BA01, size: 0x8, addend: 0x0, symName: __ZSt22__copy_move_backward_aILb1EPxS0_ET1_T0_S2_S1_, symObjAddr: 0x9454, symBinAddr: 0x10000C0D0, symSize: 0x60 }
  - { offset: 0x1BA65, size: 0x8, addend: 0x0, symName: __ZSt12__miter_baseIPxET_S1_, symObjAddr: 0x9440, symBinAddr: 0x10000C0BC, symSize: 0x14 }
  - { offset: 0x1BA96, size: 0x8, addend: 0x0, symName: __ZSt22__uninitialized_copy_aISt13move_iteratorIPxES1_xET0_T_S4_S3_RSaIT1_E, symObjAddr: 0x9410, symBinAddr: 0x10000C08C, symSize: 0x30 }
  - { offset: 0x1BB02, size: 0x8, addend: 0x0, symName: __ZSt18make_move_iteratorIPxESt13move_iteratorIT_ES2_, symObjAddr: 0x93E4, symBinAddr: 0x10000C060, symSize: 0x2C }
  - { offset: 0x1BB65, size: 0x8, addend: 0x0, symName: __ZNSt6vectorIxSaIxEE16_Temporary_value6_M_ptrEv, symObjAddr: 0x93C4, symBinAddr: 0x10000C040, symSize: 0x20 }
  - { offset: 0x1BBB3, size: 0x8, addend: 0x0, symName: __ZNSt6vectorIxSaIxEE16_Temporary_value8_StorageD1Ev, symObjAddr: 0x93B0, symBinAddr: 0x10000C02C, symSize: 0x14 }
  - { offset: 0x1BBF3, size: 0x8, addend: 0x0, symName: __ZNSt6vectorIxSaIxEE16_Temporary_value8_StorageC1Ev, symObjAddr: 0x9394, symBinAddr: 0x10000C010, symSize: 0x1C }
  - { offset: 0x1BC14, size: 0x8, addend: 0x0, symName: __ZNSt12_Destroy_auxILb1EE9__destroyIPxEEvT_S3_, symObjAddr: 0x937C, symBinAddr: 0x10000BFF8, symSize: 0x18 }
  - { offset: 0x1BC4C, size: 0x8, addend: 0x0, symName: __ZNSt15__new_allocatorIxE10deallocateEPxm, symObjAddr: 0x934C, symBinAddr: 0x10000BFC8, symSize: 0x30 }
  - { offset: 0x1BC94, size: 0x8, addend: 0x0, symName: __ZNSt15__new_allocatorI12merged_agentE10deallocateEPS0_m, symObjAddr: 0x9310, symBinAddr: 0x10000BF8C, symSize: 0x3C }
  - { offset: 0x1BCD7, size: 0x8, addend: 0x0, symName: __ZNSt12_Destroy_auxILb0EE9__destroyIP12merged_agentEEvT_S4_, symObjAddr: 0x92C4, symBinAddr: 0x10000BF40, symSize: 0x4C }
  - { offset: 0x1BD16, size: 0x8, addend: 0x0, symName: __ZNSt20__uninitialized_copyILb0EE13__uninit_copyIN9__gnu_cxx17__normal_iteratorIPK12merged_agentSt6vectorIS4_SaIS4_EEEEPS4_EET0_T_SD_SC_, symObjAddr: 0x9298, symBinAddr: 0x10000BF14, symSize: 0x2C }
  - { offset: 0x1BD6D, size: 0x8, addend: 0x0, symName: __ZSt12__relocate_aIP11merged_pairS1_SaIS0_EET0_T_S4_S3_RT1_, symObjAddr: 0x923C, symBinAddr: 0x10000BEB8, symSize: 0x5C }
  - { offset: 0x1BE04, size: 0x8, addend: 0x0, symName: __ZSt3maxImERKT_S2_S2_, symObjAddr: 0x9204, symBinAddr: 0x10000BE80, symSize: 0x38 }
  - { offset: 0x1BE4A, size: 0x8, addend: 0x0, symName: __ZNKSt6vectorI11merged_pairSaIS0_EE8max_sizeEv, symObjAddr: 0x91E4, symBinAddr: 0x10000BE60, symSize: 0x20 }
  - { offset: 0x1BE74, size: 0x8, addend: 0x0, symName: __ZNSt8_Rb_treeIxxSt9_IdentityIxESt4lessIxESaIxEE11_M_put_nodeEPSt13_Rb_tree_nodeIxE, symObjAddr: 0x9198, symBinAddr: 0x10000BE14, symSize: 0x4C }
  - { offset: 0x1BEE4, size: 0x8, addend: 0x0, symName: __ZNSt8_Rb_treeIxxSt9_IdentityIxESt4lessIxESaIxEE15_M_destroy_nodeEPSt13_Rb_tree_nodeIxE, symObjAddr: 0x9140, symBinAddr: 0x10000BDBC, symSize: 0x58 }
  - { offset: 0x1BF78, size: 0x8, addend: 0x0, symName: __ZNSt8_Rb_treeIxxSt9_IdentityIxESt4lessIxESaIxEE7_M_copyILb0ENS5_11_Alloc_nodeEEEPSt13_Rb_tree_nodeIxESA_PSt18_Rb_tree_node_baseRT0_, symObjAddr: 0x8FF8, symBinAddr: 0x10000BC74, symSize: 0x148 }
  - { offset: 0x1C046, size: 0x8, addend: 0x0, symName: __ZNSt12_Destroy_auxILb1EE9__destroyIP11merged_pairEEvT_S4_, symObjAddr: 0x8FE0, symBinAddr: 0x10000BC5C, symSize: 0x18 }
  - { offset: 0x1C07E, size: 0x8, addend: 0x0, symName: __ZNSt15__new_allocatorI11merged_pairE10deallocateEPS0_m, symObjAddr: 0x8FB0, symBinAddr: 0x10000BC2C, symSize: 0x30 }
  - { offset: 0x1C0C1, size: 0x8, addend: 0x0, symName: __ZNSt8_Rb_treeIxxSt9_IdentityIxESt4lessIxESaIxEE8_S_rightEPKSt18_Rb_tree_node_base, symObjAddr: 0x8F98, symBinAddr: 0x10000BC14, symSize: 0x18 }
  - { offset: 0x1C0E9, size: 0x8, addend: 0x0, symName: __ZNSt8_Rb_treeIxxSt9_IdentityIxESt4lessIxESaIxEE7_S_leftEPKSt18_Rb_tree_node_base, symObjAddr: 0x8F80, symBinAddr: 0x10000BBFC, symSize: 0x18 }
  - { offset: 0x1C111, size: 0x8, addend: 0x0, symName: __ZNSt8_Rb_treeIxxSt9_IdentityIxESt4lessIxESaIxEE6_S_keyEPKSt13_Rb_tree_nodeIxE, symObjAddr: 0x8F58, symBinAddr: 0x10000BBD4, symSize: 0x28 }
  - { offset: 0x1C142, size: 0x8, addend: 0x0, symName: __ZNK9__gnu_cxx16__aligned_membufIxE7_M_addrEv, symObjAddr: 0x8F44, symBinAddr: 0x10000BBC0, symSize: 0x14 }
  - { offset: 0x1C167, size: 0x8, addend: 0x0, symName: __ZSt18uninitialized_copyIN9__gnu_cxx17__normal_iteratorIPKxSt6vectorIxSaIxEEEEPxET0_T_SA_S9_, symObjAddr: 0x8F08, symBinAddr: 0x10000BB84, symSize: 0x3C }
  - { offset: 0x1C20B, size: 0x8, addend: 0x0, symName: __ZN9__gnu_cxx17__normal_iteratorIPKxSt6vectorIxSaIxEEEC1ERKS2_, symObjAddr: 0x8EE0, symBinAddr: 0x10000BB5C, symSize: 0x28 }
  - { offset: 0x1C23A, size: 0x8, addend: 0x0, symName: __ZNSt12_Vector_baseIxSaIxEE17_M_create_storageEm, symObjAddr: 0x8E80, symBinAddr: 0x10000BAFC, symSize: 0x60 }
  - { offset: 0x1C29B, size: 0x8, addend: 0x0, symName: __ZNSt12_Vector_baseIxSaIxEE12_Vector_implC1ERKS0_, symObjAddr: 0x8E34, symBinAddr: 0x10000BAB0, symSize: 0x4C }
  - { offset: 0x1C333, size: 0x8, addend: 0x0, symName: __ZSt18uninitialized_copyIN9__gnu_cxx17__normal_iteratorIPK5agentSt6vectorIS2_SaIS2_EEEEPS2_ET0_T_SB_SA_, symObjAddr: 0x8E00, symBinAddr: 0x10000BA7C, symSize: 0x34 }
  - { offset: 0x1C3D7, size: 0x8, addend: 0x0, symName: __ZN9__gnu_cxx17__normal_iteratorIPK5agentSt6vectorIS1_SaIS1_EEEC1ERKS3_, symObjAddr: 0x8DD8, symBinAddr: 0x10000BA54, symSize: 0x28 }
  - { offset: 0x1C406, size: 0x8, addend: 0x0, symName: __ZNSt12_Vector_baseI5agentSaIS0_EE17_M_create_storageEm, symObjAddr: 0x8D6C, symBinAddr: 0x10000B9E8, symSize: 0x6C }
  - { offset: 0x1C467, size: 0x8, addend: 0x0, symName: __ZNSt12_Vector_baseI5agentSaIS0_EE12_Vector_implC1ERKS1_, symObjAddr: 0x8D20, symBinAddr: 0x10000B99C, symSize: 0x4C }
  - { offset: 0x1C4FF, size: 0x8, addend: 0x0, symName: __ZNSt6vectorI5agentSaIS0_EE11_S_relocateEPS0_S3_S3_RS1_, symObjAddr: 0x8CEC, symBinAddr: 0x10000B968, symSize: 0x34 }
  - { offset: 0x1C557, size: 0x8, addend: 0x0, symName: __ZSt12__to_addressI5agentEPT_S2_, symObjAddr: 0x8CD8, symBinAddr: 0x10000B954, symSize: 0x14 }
  - { offset: 0x1C58C, size: 0x8, addend: 0x0, symName: __ZNSt12_Vector_baseI5agentSaIS0_EE11_M_allocateEm, symObjAddr: 0x8C88, symBinAddr: 0x10000B904, symSize: 0x50 }
  - { offset: 0x1C5F4, size: 0x8, addend: 0x0, symName: __ZN9__gnu_cxxmiIP5agentSt6vectorIS1_SaIS1_EEEENS_17__normal_iteratorIT_T0_E15difference_typeERKS9_SC_, symObjAddr: 0x8C34, symBinAddr: 0x10000B8B0, symSize: 0x54 }
  - { offset: 0x1C643, size: 0x8, addend: 0x0, symName: __ZNSt6vectorI5agentSaIS0_EE5beginEv, symObjAddr: 0x8C10, symBinAddr: 0x10000B88C, symSize: 0x24 }
  - { offset: 0x1C66D, size: 0x8, addend: 0x0, symName: __ZNSt6vectorI5agentSaIS0_EE3endEv, symObjAddr: 0x8BE8, symBinAddr: 0x10000B864, symSize: 0x28 }
  - { offset: 0x1C697, size: 0x8, addend: 0x0, symName: __ZNKSt6vectorI5agentSaIS0_EE12_M_check_lenEmPKc, symObjAddr: 0x8B18, symBinAddr: 0x10000B794, symSize: 0xD0 }
  - { offset: 0x1C756, size: 0x8, addend: 0x0, symName: __ZN5agentC1ERKS_, symObjAddr: 0x8AB0, symBinAddr: 0x10000B72C, symSize: 0x68 }
  - { offset: 0x1C786, size: 0x8, addend: 0x0, symName: __ZSt7forwardIRK5agentEOT_RNSt16remove_referenceIS3_E4typeE, symObjAddr: 0x8A9C, symBinAddr: 0x10000B718, symSize: 0x14 }
  - { offset: 0x1C7B6, size: 0x8, addend: 0x0, symName: __ZSt8_DestroyIP5agentEvT_S2_, symObjAddr: 0x8A74, symBinAddr: 0x10000B6F0, symSize: 0x28 }
  - { offset: 0x1C83D, size: 0x8, addend: 0x0, symName: __ZNSt6vectorI6serverSaIS0_EE11_S_relocateEPS0_S3_S3_RS1_, symObjAddr: 0x8A40, symBinAddr: 0x10000B6BC, symSize: 0x34 }
  - { offset: 0x1C895, size: 0x8, addend: 0x0, symName: __ZSt12__to_addressI6serverEPT_S2_, symObjAddr: 0x8A2C, symBinAddr: 0x10000B6A8, symSize: 0x14 }
  - { offset: 0x1C8CA, size: 0x8, addend: 0x0, symName: __ZNSt12_Vector_baseI6serverSaIS0_EE11_M_allocateEm, symObjAddr: 0x89DC, symBinAddr: 0x10000B658, symSize: 0x50 }
  - { offset: 0x1C932, size: 0x8, addend: 0x0, symName: __ZN9__gnu_cxxmiIP6serverSt6vectorIS1_SaIS1_EEEENS_17__normal_iteratorIT_T0_E15difference_typeERKS9_SC_, symObjAddr: 0x899C, symBinAddr: 0x10000B618, symSize: 0x40 }
  - { offset: 0x1C981, size: 0x8, addend: 0x0, symName: __ZNSt6vectorI6serverSaIS0_EE5beginEv, symObjAddr: 0x8978, symBinAddr: 0x10000B5F4, symSize: 0x24 }
  - { offset: 0x1C9AB, size: 0x8, addend: 0x0, symName: __ZNSt6vectorI6serverSaIS0_EE3endEv, symObjAddr: 0x8950, symBinAddr: 0x10000B5CC, symSize: 0x28 }
  - { offset: 0x1C9D5, size: 0x8, addend: 0x0, symName: __ZNKSt6vectorI6serverSaIS0_EE12_M_check_lenEmPKc, symObjAddr: 0x8880, symBinAddr: 0x10000B4FC, symSize: 0xD0 }
  - { offset: 0x1CA94, size: 0x8, addend: 0x0, symName: __ZN6serverC1ERKS_, symObjAddr: 0x8828, symBinAddr: 0x10000B4A4, symSize: 0x58 }
  - { offset: 0x1CAC4, size: 0x8, addend: 0x0, symName: __ZSt7forwardIRK6serverEOT_RNSt16remove_referenceIS3_E4typeE, symObjAddr: 0x8814, symBinAddr: 0x10000B490, symSize: 0x14 }
  - { offset: 0x1CAF4, size: 0x8, addend: 0x0, symName: __ZSt8_DestroyIP6serverEvT_S2_, symObjAddr: 0x87EC, symBinAddr: 0x10000B468, symSize: 0x28 }
  - { offset: 0x1CB7B, size: 0x8, addend: 0x0, symName: __ZNSt6vectorIxSaIxEE11_S_relocateEPxS2_S2_RS0_, symObjAddr: 0x87B8, symBinAddr: 0x10000B434, symSize: 0x34 }
  - { offset: 0x1CBD3, size: 0x8, addend: 0x0, symName: __ZSt12__to_addressIxEPT_S1_, symObjAddr: 0x87A4, symBinAddr: 0x10000B420, symSize: 0x14 }
  - { offset: 0x1CC08, size: 0x8, addend: 0x0, symName: __ZNSt6vectorIxSaIxEE5beginEv, symObjAddr: 0x8780, symBinAddr: 0x10000B3FC, symSize: 0x24 }
  - { offset: 0x1CC75, size: 0x8, addend: 0x0, symName: __ZSt7forwardIRbEOT_RNSt16remove_referenceIS1_E4typeE, symObjAddr: 0x876C, symBinAddr: 0x10000B3E8, symSize: 0x14 }
  - { offset: 0x1CCAB, size: 0x8, addend: 0x0, symName: __ZSt7forwardIRSt17_Rb_tree_iteratorIxEEOT_RNSt16remove_referenceIS3_E4typeE, symObjAddr: 0x8758, symBinAddr: 0x10000B3D4, symSize: 0x14 }
  - { offset: 0x1CD08, size: 0x8, addend: 0x0, symName: __ZNSt17_Rb_tree_iteratorIxEC1EPSt18_Rb_tree_node_base, symObjAddr: 0x8734, symBinAddr: 0x10000B3B0, symSize: 0x24 }
  - { offset: 0x1CD7F, size: 0x8, addend: 0x0, symName: __ZNSt4pairISt17_Rb_tree_iteratorIxEbEC1IS1_bLb1EEEOT_OT0_, symObjAddr: 0x86E8, symBinAddr: 0x10000B364, symSize: 0x4C }
  - { offset: 0x1CDC9, size: 0x8, addend: 0x0, symName: __ZNSt8_Rb_treeIxxSt9_IdentityIxESt4lessIxESaIxEE10_M_insert_IRKxNS5_11_Alloc_nodeEEESt17_Rb_tree_iteratorIxEPSt18_Rb_tree_node_baseSD_OT_RT0_, symObjAddr: 0x85F8, symBinAddr: 0x10000B274, symSize: 0xF0 }
  - { offset: 0x1CE69, size: 0x8, addend: 0x0, symName: __ZSt7forwardIRKxEOT_RNSt16remove_referenceIS2_E4typeE, symObjAddr: 0x85E4, symBinAddr: 0x10000B260, symSize: 0x14 }
  - { offset: 0x1CE9E, size: 0x8, addend: 0x0, symName: __ZNKSt9_IdentityIxEclERKx, symObjAddr: 0x85CC, symBinAddr: 0x10000B248, symSize: 0x18 }
  - { offset: 0x1CED8, size: 0x8, addend: 0x0, symName: __ZNSt8_Rb_treeIxxSt9_IdentityIxESt4lessIxESaIxEE24_M_get_insert_unique_posERKx, symObjAddr: 0x8474, symBinAddr: 0x10000B0F0, symSize: 0x158 }
  - { offset: 0x1CF83, size: 0x8, addend: 0x0, symName: __ZNSt17_Rb_tree_iteratorISt4pairIKxSt3setIxSt4lessIxESaIxEEEEC1EPSt18_Rb_tree_node_base, symObjAddr: 0x8450, symBinAddr: 0x10000B0CC, symSize: 0x24 }
  - { offset: 0x1CFB2, size: 0x8, addend: 0x0, symName: __ZNSt8_Rb_treeIxSt4pairIKxSt3setIxSt4lessIxESaIxEEESt10_Select1stIS7_ES4_SaIS7_EE10_Auto_node9_M_insertES0_IPSt18_Rb_tree_node_baseSE_E, symObjAddr: 0x8404, symBinAddr: 0x10000B080, symSize: 0x4C }
  - { offset: 0x1CFFD, size: 0x8, addend: 0x0, symName: __ZNKSt8_Rb_treeIxSt4pairIKxSt3setIxSt4lessIxESaIxEEESt10_Select1stIS7_ES4_SaIS7_EE10_Auto_node6_M_keyEv, symObjAddr: 0x83E4, symBinAddr: 0x10000B060, symSize: 0x20 }
  - { offset: 0x1D027, size: 0x8, addend: 0x0, symName: __ZNSt8_Rb_treeIxSt4pairIKxSt3setIxSt4lessIxESaIxEEESt10_Select1stIS7_ES4_SaIS7_EE29_M_get_insert_hint_unique_posESt23_Rb_tree_const_iteratorIS7_ERS1_, symObjAddr: 0x80C0, symBinAddr: 0x10000AD3C, symSize: 0x324 }
  - { offset: 0x1D0F4, size: 0x8, addend: 0x0, symName: __ZNSt8_Rb_treeIxSt4pairIKxSt3setIxSt4lessIxESaIxEEESt10_Select1stIS7_ES4_SaIS7_EE10_Auto_nodeD1Ev, symObjAddr: 0x807C, symBinAddr: 0x10000ACF8, symSize: 0x44 }
  - { offset: 0x1D16D, size: 0x8, addend: 0x0, symName: __ZNSt8_Rb_treeIxSt4pairIKxSt3setIxSt4lessIxESaIxEEESt10_Select1stIS7_ES4_SaIS7_EE10_Auto_nodeC1IJRKSt21piecewise_construct_tSt5tupleIJRS1_EESH_IJEEEEERSB_DpOT_, symObjAddr: 0x8000, symBinAddr: 0x10000AC7C, symSize: 0x7C }
  - { offset: 0x1D1D4, size: 0x8, addend: 0x0, symName: __ZSt7forwardISt5tupleIJEEEOT_RNSt16remove_referenceIS2_E4typeE, symObjAddr: 0x7FEC, symBinAddr: 0x10000AC68, symSize: 0x14 }
  - { offset: 0x1D20A, size: 0x8, addend: 0x0, symName: __ZSt7forwardISt5tupleIJRKxEEEOT_RNSt16remove_referenceIS4_E4typeE, symObjAddr: 0x7FD8, symBinAddr: 0x10000AC54, symSize: 0x14 }
  - { offset: 0x1D240, size: 0x8, addend: 0x0, symName: __ZSt7forwardIRKSt21piecewise_construct_tEOT_RNSt16remove_referenceIS3_E4typeE, symObjAddr: 0x7FC4, symBinAddr: 0x10000AC40, symSize: 0x14 }
  - { offset: 0x1D29D, size: 0x8, addend: 0x0, symName: __ZNSt11_Tuple_implILm0EJRKxEEC2ES1_, symObjAddr: 0x7F9C, symBinAddr: 0x10000AC18, symSize: 0x28 }
  - { offset: 0x1D2CC, size: 0x8, addend: 0x0, symName: __ZNSt13_Rb_tree_nodeISt4pairIKxSt3setIxSt4lessIxESaIxEEEE9_M_valptrEv, symObjAddr: 0x7F7C, symBinAddr: 0x10000ABF8, symSize: 0x20 }
  - { offset: 0x1D2F6, size: 0x8, addend: 0x0, symName: __ZNKSt8_Rb_treeIxSt4pairIKxSt3setIxSt4lessIxESaIxEEESt10_Select1stIS7_ES4_SaIS7_EE8key_compEv, symObjAddr: 0x7F64, symBinAddr: 0x10000ABE0, symSize: 0x18 }
  - { offset: 0x1D320, size: 0x8, addend: 0x0, symName: __ZNSt8_Rb_treeIxSt4pairIKxSt3setIxSt4lessIxESaIxEEESt10_Select1stIS7_ES4_SaIS7_EE3endEv, symObjAddr: 0x7F3C, symBinAddr: 0x10000ABB8, symSize: 0x28 }
  - { offset: 0x1D34A, size: 0x8, addend: 0x0, symName: __ZNSt8_Rb_treeIxSt4pairIKxSt3setIxSt4lessIxESaIxEEESt10_Select1stIS7_ES4_SaIS7_EE11lower_boundERS1_, symObjAddr: 0x7EF4, symBinAddr: 0x10000AB70, symSize: 0x48 }
  - { offset: 0x1D37F, size: 0x8, addend: 0x0, symName: __ZSt18uninitialized_copyIP12merged_agentS1_ET0_T_S3_S2_, symObjAddr: 0x7EC0, symBinAddr: 0x10000AB3C, symSize: 0x34 }
  - { offset: 0x1D3F6, size: 0x8, addend: 0x0, symName: __ZSt13__copy_move_aILb0EP12merged_agentS1_ET1_T0_S3_S2_, symObjAddr: 0x7E60, symBinAddr: 0x10000AADC, symSize: 0x60 }
  - { offset: 0x1D45A, size: 0x8, addend: 0x0, symName: __ZSt12__miter_baseIP12merged_agentET_S2_, symObjAddr: 0x7E4C, symBinAddr: 0x10000AAC8, symSize: 0x14 }
  - { offset: 0x1D48B, size: 0x8, addend: 0x0, symName: __ZSt8_DestroyIN9__gnu_cxx17__normal_iteratorIP12merged_agentSt6vectorIS2_SaIS2_EEEEEvT_S8_, symObjAddr: 0x7E24, symBinAddr: 0x10000AAA0, symSize: 0x28 }
  - { offset: 0x1D4CA, size: 0x8, addend: 0x0, symName: __ZSt13__copy_move_aILb0EN9__gnu_cxx17__normal_iteratorIPK12merged_agentSt6vectorIS2_SaIS2_EEEENS1_IPS2_S7_EEET1_T0_SC_SB_, symObjAddr: 0x7DC4, symBinAddr: 0x10000AA40, symSize: 0x60 }
  - { offset: 0x1D52E, size: 0x8, addend: 0x0, symName: __ZSt12__miter_baseIN9__gnu_cxx17__normal_iteratorIPK12merged_agentSt6vectorIS2_SaIS2_EEEEET_S9_, symObjAddr: 0x7DB0, symBinAddr: 0x10000AA2C, symSize: 0x14 }
  - { offset: 0x1D58C, size: 0x8, addend: 0x0, symName: __ZN9__gnu_cxx17__normal_iteratorIP12merged_agentSt6vectorIS1_SaIS1_EEEC1ERKS2_, symObjAddr: 0x7D88, symBinAddr: 0x10000AA04, symSize: 0x28 }
  - { offset: 0x1D5BB, size: 0x8, addend: 0x0, symName: __ZNSt6vectorI12merged_agentSaIS0_EE15_M_erase_at_endEPS0_, symObjAddr: 0x7CF4, symBinAddr: 0x10000A970, symSize: 0x94 }
  - { offset: 0x1D64F, size: 0x8, addend: 0x0, symName: __ZNKSt8_Rb_treeIxSt4pairIKxSt3setIxSt4lessIxESaIxEEESt10_Select1stIS7_ES4_SaIS7_EE9_M_mbeginEv, symObjAddr: 0x7CDC, symBinAddr: 0x10000A958, symSize: 0x18 }
  - { offset: 0x1D679, size: 0x8, addend: 0x0, symName: __ZNSt8_Rb_treeIxSt4pairIKxSt3setIxSt4lessIxESaIxEEESt10_Select1stIS7_ES4_SaIS7_EE12_M_drop_nodeEPSt13_Rb_tree_nodeIS7_E, symObjAddr: 0x7CA8, symBinAddr: 0x10000A924, symSize: 0x34 }
  - { offset: 0x1D6AE, size: 0x8, addend: 0x0, symName: __ZNSt8_Rb_treeIxSt4pairIKxSt3setIxSt4lessIxESaIxEEESt10_Select1stIS7_ES4_SaIS7_EE7_S_leftEPSt18_Rb_tree_node_base, symObjAddr: 0x7C90, symBinAddr: 0x10000A90C, symSize: 0x18 }
  - { offset: 0x1D6D6, size: 0x8, addend: 0x0, symName: __ZNSt8_Rb_treeIxSt4pairIKxSt3setIxSt4lessIxESaIxEEESt10_Select1stIS7_ES4_SaIS7_EE8_S_rightEPSt18_Rb_tree_node_base, symObjAddr: 0x7C78, symBinAddr: 0x10000A8F4, symSize: 0x18 }
  - { offset: 0x1D719, size: 0x8, addend: 0x0, symName: __ZNK9__gnu_cxx16__aligned_membufISt4pairIKxSt3setIxSt4lessIxESaIxEEEE6_M_ptrEv, symObjAddr: 0x7C5C, symBinAddr: 0x10000A8D8, symSize: 0x1C }
  - { offset: 0x1D76B, size: 0x8, addend: 0x0, symName: __ZNSt23_Rb_tree_const_iteratorISt4pairIKxSt3setIxSt4lessIxESaIxEEEEC1EPKSt18_Rb_tree_node_base, symObjAddr: 0x7C38, symBinAddr: 0x10000A8B4, symSize: 0x24 }
  - { offset: 0x1D7B0, size: 0x8, addend: 0x0, symName: __ZNSt6vectorI12merged_agentSaIS0_EE11_S_relocateEPS0_S3_S3_RS1_, symObjAddr: 0x7C04, symBinAddr: 0x10000A880, symSize: 0x34 }
  - { offset: 0x1D808, size: 0x8, addend: 0x0, symName: __ZSt12__to_addressI12merged_agentEPT_S2_, symObjAddr: 0x7BF0, symBinAddr: 0x10000A86C, symSize: 0x14 }
  - { offset: 0x1D83D, size: 0x8, addend: 0x0, symName: __ZNSt12_Vector_baseI12merged_agentSaIS0_EE11_M_allocateEm, symObjAddr: 0x7BA0, symBinAddr: 0x10000A81C, symSize: 0x50 }
  - { offset: 0x1D89F, size: 0x8, addend: 0x0, symName: __ZN9__gnu_cxxmiIP12merged_agentSt6vectorIS1_SaIS1_EEEENS_17__normal_iteratorIT_T0_E15difference_typeERKS9_SC_, symObjAddr: 0x7B54, symBinAddr: 0x10000A7D0, symSize: 0x4C }
  - { offset: 0x1D8EE, size: 0x8, addend: 0x0, symName: __ZNKSt6vectorI12merged_agentSaIS0_EE12_M_check_lenEmPKc, symObjAddr: 0x7A84, symBinAddr: 0x10000A700, symSize: 0xD0 }
  - { offset: 0x1D9AD, size: 0x8, addend: 0x0, symName: __ZN12merged_agentC1ERKS_, symObjAddr: 0x79E0, symBinAddr: 0x10000A65C, symSize: 0xA4 }
  - { offset: 0x1D9DD, size: 0x8, addend: 0x0, symName: __ZSt7forwardIRK12merged_agentEOT_RNSt16remove_referenceIS3_E4typeE, symObjAddr: 0x79CC, symBinAddr: 0x10000A648, symSize: 0x14 }
  - { offset: 0x1DA13, size: 0x8, addend: 0x0, symName: __ZSteqRKSt17_Rb_tree_iteratorIxES2_, symObjAddr: 0x799C, symBinAddr: 0x10000A618, symSize: 0x30 }
  - { offset: 0x1DA50, size: 0x8, addend: 0x0, symName: __ZNSt8_Rb_treeIxxSt9_IdentityIxESt4lessIxESaIxEE14_M_lower_boundEPSt13_Rb_tree_nodeIxEPSt18_Rb_tree_node_baseRKx, symObjAddr: 0x7900, symBinAddr: 0x10000A57C, symSize: 0x9C }
  - { offset: 0x1DAAA, size: 0x8, addend: 0x0, symName: __ZNSt8_Rb_treeIxxSt9_IdentityIxESt4lessIxESaIxEE17_M_insert_unique_IRKxNS5_11_Alloc_nodeEEESt17_Rb_tree_iteratorIxESt23_Rb_tree_const_iteratorIxEOT_RT0_, symObjAddr: 0x7870, symBinAddr: 0x10000A4EC, symSize: 0x90 }
  - { offset: 0x1DB27, size: 0x8, addend: 0x0, symName: __ZNSt8_Rb_treeIxxSt9_IdentityIxESt4lessIxESaIxEE3endEv, symObjAddr: 0x7848, symBinAddr: 0x10000A4C4, symSize: 0x28 }
  - { offset: 0x1DB4C, size: 0x8, addend: 0x0, symName: __ZNSt8_Rb_treeIxxSt9_IdentityIxESt4lessIxESaIxEE10_S_maximumEPSt18_Rb_tree_node_base, symObjAddr: 0x782C, symBinAddr: 0x10000A4A8, symSize: 0x1C }
  - { offset: 0x1DB74, size: 0x8, addend: 0x0, symName: __ZNSt8_Rb_treeIxxSt9_IdentityIxESt4lessIxESaIxEE10_S_minimumEPSt18_Rb_tree_node_base, symObjAddr: 0x7810, symBinAddr: 0x10000A48C, symSize: 0x1C }
  - { offset: 0x1DBA1, size: 0x8, addend: 0x0, symName: __ZNSt8_Rb_treeIxxSt9_IdentityIxESt4lessIxESaIxEE11_M_leftmostEv, symObjAddr: 0x77F8, symBinAddr: 0x10000A474, symSize: 0x18 }
  - { offset: 0x1DBCB, size: 0x8, addend: 0x0, symName: __ZNSt8_Rb_treeIxxSt9_IdentityIxESt4lessIxESaIxEE7_M_copyILb0ENS5_20_Reuse_or_alloc_nodeEEEPSt13_Rb_tree_nodeIxESA_PSt18_Rb_tree_node_baseRT0_, symObjAddr: 0x76B0, symBinAddr: 0x10000A32C, symSize: 0x148 }
  - { offset: 0x1DC6D, size: 0x8, addend: 0x0, symName: __ZNSt8_Rb_treeIxxSt9_IdentityIxESt4lessIxESaIxEE6_M_endEv, symObjAddr: 0x7698, symBinAddr: 0x10000A314, symSize: 0x18 }
  - { offset: 0x1DC97, size: 0x8, addend: 0x0, symName: __ZNSt8_Rb_treeIxxSt9_IdentityIxESt4lessIxESaIxEE12_M_rightmostEv, symObjAddr: 0x7680, symBinAddr: 0x10000A2FC, symSize: 0x18 }
  - { offset: 0x1DCD2, size: 0x8, addend: 0x0, symName: __ZSt22__final_insertion_sortIN9__gnu_cxx17__normal_iteratorIP11merged_pairSt6vectorIS2_SaIS2_EEEENS0_5__ops15_Iter_comp_iterIPFbRKS2_SB_EEEEvT_SF_T0_, symObjAddr: 0x75F4, symBinAddr: 0x10000A270, symSize: 0x8C }
  - { offset: 0x1DD2C, size: 0x8, addend: 0x0, symName: __ZSt16__introsort_loopIN9__gnu_cxx17__normal_iteratorIP11merged_pairSt6vectorIS2_SaIS2_EEEElNS0_5__ops15_Iter_comp_iterIPFbRKS2_SB_EEEEvT_SF_T0_T1_, symObjAddr: 0x754C, symBinAddr: 0x10000A1C8, symSize: 0xA8 }
  - { offset: 0x1DDC3, size: 0x8, addend: 0x0, symName: __ZSt4__lgIlET_S0_, symObjAddr: 0x7528, symBinAddr: 0x10000A1A4, symSize: 0x24 }
  - { offset: 0x1DE20, size: 0x8, addend: 0x0, symName: __ZN9__gnu_cxx5__ops15_Iter_comp_iterIPFbRK11merged_pairS4_EEC1ES6_, symObjAddr: 0x74F8, symBinAddr: 0x10000A174, symSize: 0x30 }
  - { offset: 0x1DE56, size: 0x8, addend: 0x0, symName: __ZSt4moveIRPFbRK11merged_pairS2_EEONSt16remove_referenceIT_E4typeEOS7_, symObjAddr: 0x74E4, symBinAddr: 0x10000A160, symSize: 0x14 }
  - { offset: 0x1DEB3, size: 0x8, addend: 0x0, symName: __ZN9__gnu_cxx17__normal_iteratorIPxSt6vectorIxSaIxEEEC1ERKS1_, symObjAddr: 0x74BC, symBinAddr: 0x10000A138, symSize: 0x28 }
  - { offset: 0x1DEDD, size: 0x8, addend: 0x0, symName: __ZSt34__uninitialized_move_if_noexcept_aIPxS0_SaIxEET0_T_S3_S2_RT1_, symObjAddr: 0x746C, symBinAddr: 0x10000A0E8, symSize: 0x50 }
  - { offset: 0x1DF55, size: 0x8, addend: 0x0, symName: __ZNSt12_Vector_baseIxSaIxEE11_M_allocateEm, symObjAddr: 0x741C, symBinAddr: 0x10000A098, symSize: 0x50 }
  - { offset: 0x1DFBC, size: 0x8, addend: 0x0, symName: __ZNKSt6vectorIxSaIxEE12_M_check_lenEmPKc, symObjAddr: 0x734C, symBinAddr: 0x100009FC8, symSize: 0xD0 }
  - { offset: 0x1E012, size: 0x8, addend: 0x0, symName: __ZSt24__uninitialized_fill_n_aIPxmxxET_S1_T0_RKT1_RSaIT2_E, symObjAddr: 0x731C, symBinAddr: 0x100009F98, symSize: 0x30 }
  - { offset: 0x1E087, size: 0x8, addend: 0x0, symName: __ZSt4fillIPxxEvT_S1_RKT0_, symObjAddr: 0x72EC, symBinAddr: 0x100009F68, symSize: 0x30 }
  - { offset: 0x1E0E1, size: 0x8, addend: 0x0, symName: __ZSt13move_backwardIPxS0_ET0_T_S2_S1_, symObjAddr: 0x72A4, symBinAddr: 0x100009F20, symSize: 0x48 }
  - { offset: 0x1E140, size: 0x8, addend: 0x0, symName: __ZNK9__gnu_cxx17__normal_iteratorIPxSt6vectorIxSaIxEEE4baseEv, symObjAddr: 0x7290, symBinAddr: 0x100009F0C, symSize: 0x14 }
  - { offset: 0x1E165, size: 0x8, addend: 0x0, symName: __ZSt22__uninitialized_move_aIPxS0_SaIxEET0_T_S3_S2_RT1_, symObjAddr: 0x7240, symBinAddr: 0x100009EBC, symSize: 0x50 }
  - { offset: 0x1E1DE, size: 0x8, addend: 0x0, symName: __ZN9__gnu_cxxmiIPxSt6vectorIxSaIxEEEENS_17__normal_iteratorIT_T0_E15difference_typeERKS8_SB_, symObjAddr: 0x7200, symBinAddr: 0x100009E7C, symSize: 0x40 }
  - { offset: 0x1E22D, size: 0x8, addend: 0x0, symName: __ZNSt6vectorIxSaIxEE16_Temporary_value6_M_valEv, symObjAddr: 0x71E8, symBinAddr: 0x100009E64, symSize: 0x18 }
  - { offset: 0x1E27B, size: 0x8, addend: 0x0, symName: __ZNSt6vectorIxSaIxEE16_Temporary_valueD1Ev, symObjAddr: 0x7188, symBinAddr: 0x100009E04, symSize: 0x60 }
  - { offset: 0x1E33A, size: 0x8, addend: 0x0, symName: __ZNSt6vectorIxSaIxEE16_Temporary_valueC1IJRKxEEEPS1_DpOT_, symObjAddr: 0x70D0, symBinAddr: 0x100009D4C, symSize: 0xB8 }
  - { offset: 0x1E3EC, size: 0x8, addend: 0x0, symName: __ZSt8_DestroyIPxEvT_S1_, symObjAddr: 0x70A8, symBinAddr: 0x100009D24, symSize: 0x28 }
  - { offset: 0x1E4BB, size: 0x8, addend: 0x0, symName: __ZSt8_DestroyIP12merged_agentEvT_S2_, symObjAddr: 0x7080, symBinAddr: 0x100009CFC, symSize: 0x28 }
  - { offset: 0x1E4FA, size: 0x8, addend: 0x0, symName: __ZSt18uninitialized_copyIN9__gnu_cxx17__normal_iteratorIPK12merged_agentSt6vectorIS2_SaIS2_EEEEPS2_ET0_T_SB_SA_, symObjAddr: 0x704C, symBinAddr: 0x100009CC8, symSize: 0x34 }
  - { offset: 0x1E59E, size: 0x8, addend: 0x0, symName: __ZN9__gnu_cxx17__normal_iteratorIPK12merged_agentSt6vectorIS1_SaIS1_EEEC1ERKS3_, symObjAddr: 0x7024, symBinAddr: 0x100009CA0, symSize: 0x28 }
  - { offset: 0x1E5CD, size: 0x8, addend: 0x0, symName: __ZNSt12_Vector_baseI12merged_agentSaIS0_EE17_M_create_storageEm, symObjAddr: 0x6FB8, symBinAddr: 0x100009C34, symSize: 0x6C }
  - { offset: 0x1E62E, size: 0x8, addend: 0x0, symName: __ZNSt12_Vector_baseI12merged_agentSaIS0_EE12_Vector_implC1ERKS1_, symObjAddr: 0x6F6C, symBinAddr: 0x100009BE8, symSize: 0x4C }
  - { offset: 0x1E6C6, size: 0x8, addend: 0x0, symName: __ZNSt6vectorI11merged_pairSaIS0_EE11_S_relocateEPS0_S3_S3_RS1_, symObjAddr: 0x6F38, symBinAddr: 0x100009BB4, symSize: 0x34 }
  - { offset: 0x1E71E, size: 0x8, addend: 0x0, symName: __ZSt12__to_addressI11merged_pairEPT_S2_, symObjAddr: 0x6F24, symBinAddr: 0x100009BA0, symSize: 0x14 }
  - { offset: 0x1E753, size: 0x8, addend: 0x0, symName: __ZNSt12_Vector_baseI11merged_pairSaIS0_EE11_M_allocateEm, symObjAddr: 0x6ED4, symBinAddr: 0x100009B50, symSize: 0x50 }
  - { offset: 0x1E7B5, size: 0x8, addend: 0x0, symName: __ZN9__gnu_cxxmiIP11merged_pairSt6vectorIS1_SaIS1_EEEENS_17__normal_iteratorIT_T0_E15difference_typeERKS9_SC_, symObjAddr: 0x6E94, symBinAddr: 0x100009B10, symSize: 0x40 }
  - { offset: 0x1E804, size: 0x8, addend: 0x0, symName: __ZNKSt6vectorI11merged_pairSaIS0_EE12_M_check_lenEmPKc, symObjAddr: 0x6DC4, symBinAddr: 0x100009A40, symSize: 0xD0 }
  - { offset: 0x1E8A2, size: 0x8, addend: 0x0, symName: __ZSt7forwardIRK11merged_pairEOT_RNSt16remove_referenceIS3_E4typeE, symObjAddr: 0x6DB0, symBinAddr: 0x100009A2C, symSize: 0x14 }
  - { offset: 0x1E8D7, size: 0x8, addend: 0x0, symName: __ZNKSt8_Rb_treeIxxSt9_IdentityIxESt4lessIxESaIxEE9_M_mbeginEv, symObjAddr: 0x6D98, symBinAddr: 0x100009A14, symSize: 0x18 }
  - { offset: 0x1E901, size: 0x8, addend: 0x0, symName: __ZNSt8_Rb_treeIxxSt9_IdentityIxESt4lessIxESaIxEE12_M_drop_nodeEPSt13_Rb_tree_nodeIxE, symObjAddr: 0x6D64, symBinAddr: 0x1000099E0, symSize: 0x34 }
  - { offset: 0x1E936, size: 0x8, addend: 0x0, symName: __ZNSt8_Rb_treeIxxSt9_IdentityIxESt4lessIxESaIxEE7_S_leftEPSt18_Rb_tree_node_base, symObjAddr: 0x6D4C, symBinAddr: 0x1000099C8, symSize: 0x18 }
  - { offset: 0x1E95E, size: 0x8, addend: 0x0, symName: __ZNSt8_Rb_treeIxxSt9_IdentityIxESt4lessIxESaIxEE8_S_rightEPSt18_Rb_tree_node_base, symObjAddr: 0x6D34, symBinAddr: 0x1000099B0, symSize: 0x18 }
  - { offset: 0x1E98B, size: 0x8, addend: 0x0, symName: __ZNSt8_Rb_treeIxxSt9_IdentityIxESt4lessIxESaIxEE7_M_copyILb0ENS5_11_Alloc_nodeEEEPSt13_Rb_tree_nodeIxERKS5_RT0_, symObjAddr: 0x6CA0, symBinAddr: 0x10000991C, symSize: 0x94 }
  - { offset: 0x1EA21, size: 0x8, addend: 0x0, symName: __ZNSt8_Rb_treeIxxSt9_IdentityIxESt4lessIxESaIxEE11_Alloc_nodeC1ERS5_, symObjAddr: 0x6C7C, symBinAddr: 0x1000098F8, symSize: 0x24 }
  - { offset: 0x1EA77, size: 0x8, addend: 0x0, symName: __ZNSt20_Rb_tree_key_compareISt4lessIxEEC2ERKS1_, symObjAddr: 0x6C64, symBinAddr: 0x1000098E0, symSize: 0x18 }
  - { offset: 0x1EAD9, size: 0x8, addend: 0x0, symName: __ZSt8_DestroyIP11merged_pairEvT_S2_, symObjAddr: 0x6C3C, symBinAddr: 0x1000098B8, symSize: 0x28 }
  - { offset: 0x1EB60, size: 0x8, addend: 0x0, symName: __ZNSt8_Rb_treeIxxSt9_IdentityIxESt4lessIxESaIxEE6_S_keyEPKSt18_Rb_tree_node_base, symObjAddr: 0x6C20, symBinAddr: 0x10000989C, symSize: 0x1C }
  - { offset: 0x1EB8E, size: 0x8, addend: 0x0, symName: __ZSteqRKSt23_Rb_tree_const_iteratorIxES2_, symObjAddr: 0x6BF0, symBinAddr: 0x10000986C, symSize: 0x30 }
  - { offset: 0x1EBCB, size: 0x8, addend: 0x0, symName: __ZNKSt8_Rb_treeIxxSt9_IdentityIxESt4lessIxESaIxEE14_M_lower_boundEPKSt13_Rb_tree_nodeIxEPKSt18_Rb_tree_node_baseRKx, symObjAddr: 0x6B54, symBinAddr: 0x1000097D0, symSize: 0x9C }
  - { offset: 0x1EC25, size: 0x8, addend: 0x0, symName: __ZNKSt8_Rb_treeIxxSt9_IdentityIxESt4lessIxESaIxEE6_M_endEv, symObjAddr: 0x6B3C, symBinAddr: 0x1000097B8, symSize: 0x18 }
  - { offset: 0x1EC4F, size: 0x8, addend: 0x0, symName: __ZNKSt8_Rb_treeIxxSt9_IdentityIxESt4lessIxESaIxEE8_M_beginEv, symObjAddr: 0x6B24, symBinAddr: 0x1000097A0, symSize: 0x18 }
  - { offset: 0x1EC79, size: 0x8, addend: 0x0, symName: __ZNK9__gnu_cxx16__aligned_membufIxE6_M_ptrEv, symObjAddr: 0x6B08, symBinAddr: 0x100009784, symSize: 0x1C }
  - { offset: 0x1ECCB, size: 0x8, addend: 0x0, symName: __ZNSt23_Rb_tree_const_iteratorIxEC1EPKSt18_Rb_tree_node_base, symObjAddr: 0x6AE4, symBinAddr: 0x100009760, symSize: 0x24 }
  - { offset: 0x1ECF5, size: 0x8, addend: 0x0, symName: __ZSt22__uninitialized_copy_aIN9__gnu_cxx17__normal_iteratorIPKxSt6vectorIxSaIxEEEEPxxET0_T_SA_S9_RSaIT1_E, symObjAddr: 0x6AB4, symBinAddr: 0x100009730, symSize: 0x30 }
  - { offset: 0x1ED66, size: 0x8, addend: 0x0, symName: __ZNKSt6vectorIxSaIxEE3endEv, symObjAddr: 0x6A8C, symBinAddr: 0x100009708, symSize: 0x28 }
  - { offset: 0x1ED90, size: 0x8, addend: 0x0, symName: __ZNKSt6vectorIxSaIxEE5beginEv, symObjAddr: 0x6A68, symBinAddr: 0x1000096E4, symSize: 0x24 }
  - { offset: 0x1EDF0, size: 0x8, addend: 0x0, symName: __ZNSt12_Vector_baseIxSaIxEEC2EmRKS0_, symObjAddr: 0x6A14, symBinAddr: 0x100009690, symSize: 0x54 }
  - { offset: 0x1EE3D, size: 0x8, addend: 0x0, symName: __ZNKSt12_Vector_baseIxSaIxEE19_M_get_Tp_allocatorEv, symObjAddr: 0x6A00, symBinAddr: 0x10000967C, symSize: 0x14 }
  - { offset: 0x1EE62, size: 0x8, addend: 0x0, symName: __ZSt22__uninitialized_copy_aIN9__gnu_cxx17__normal_iteratorIPK5agentSt6vectorIS2_SaIS2_EEEEPS2_S2_ET0_T_SB_SA_RSaIT1_E, symObjAddr: 0x69D0, symBinAddr: 0x10000964C, symSize: 0x30 }
  - { offset: 0x1EED3, size: 0x8, addend: 0x0, symName: __ZNKSt6vectorI5agentSaIS0_EE3endEv, symObjAddr: 0x69A8, symBinAddr: 0x100009624, symSize: 0x28 }
  - { offset: 0x1EEFD, size: 0x8, addend: 0x0, symName: __ZNKSt6vectorI5agentSaIS0_EE5beginEv, symObjAddr: 0x6984, symBinAddr: 0x100009600, symSize: 0x24 }
  - { offset: 0x1EF5D, size: 0x8, addend: 0x0, symName: __ZNSt12_Vector_baseI5agentSaIS0_EEC2EmRKS1_, symObjAddr: 0x6930, symBinAddr: 0x1000095AC, symSize: 0x54 }
  - { offset: 0x1EFAA, size: 0x8, addend: 0x0, symName: __ZNKSt12_Vector_baseI5agentSaIS0_EE19_M_get_Tp_allocatorEv, symObjAddr: 0x691C, symBinAddr: 0x100009598, symSize: 0x14 }
  - { offset: 0x1EFD4, size: 0x8, addend: 0x0, symName: __ZNSt6vectorI5agentSaIS0_EE17_M_realloc_appendIJRKS0_EEEvDpOT_, symObjAddr: 0x66EC, symBinAddr: 0x100009368, symSize: 0x230 }
  - { offset: 0x1F158, size: 0x8, addend: 0x0, symName: __ZZNSt6vectorI5agentSaIS0_EE17_M_realloc_appendIJRKS0_EEEvDpOT_EN6_GuardC1EPS0_mRS1_, symObjAddr: 0x6648, symBinAddr: 0x1000092C4, symSize: 0x44 }
  - { offset: 0x1F19D, size: 0x8, addend: 0x0, symName: __ZZNSt6vectorI5agentSaIS0_EE17_M_realloc_appendIJRKS0_EEEvDpOT_EN6_GuardD1Ev, symObjAddr: 0x668C, symBinAddr: 0x100009308, symSize: 0x60 }
  - { offset: 0x1F30B, size: 0x8, addend: 0x0, symName: __ZNSt12_Vector_baseI5agentSaIS0_EE19_M_get_Tp_allocatorEv, symObjAddr: 0x6634, symBinAddr: 0x1000092B0, symSize: 0x14 }
  - { offset: 0x1F335, size: 0x8, addend: 0x0, symName: __ZNSt12_Vector_baseI5agentSaIS0_EE13_M_deallocateEPS0_m, symObjAddr: 0x65DC, symBinAddr: 0x100009258, symSize: 0x58 }
  - { offset: 0x1F3D9, size: 0x8, addend: 0x0, symName: __ZNSt15__new_allocatorI5agentED2Ev, symObjAddr: 0x65C8, symBinAddr: 0x100009244, symSize: 0x14 }
  - { offset: 0x1F419, size: 0x8, addend: 0x0, symName: __ZNSt12_Vector_baseI5agentSaIS0_EE17_Vector_impl_dataC2Ev, symObjAddr: 0x659C, symBinAddr: 0x100009218, symSize: 0x2C }
  - { offset: 0x1F455, size: 0x8, addend: 0x0, symName: __ZNSt6vectorI6serverSaIS0_EE17_M_realloc_appendIJRKS0_EEEvDpOT_, symObjAddr: 0x63A0, symBinAddr: 0x10000901C, symSize: 0x1FC }
  - { offset: 0x1F5D9, size: 0x8, addend: 0x0, symName: __ZZNSt6vectorI6serverSaIS0_EE17_M_realloc_appendIJRKS0_EEEvDpOT_EN6_GuardC1EPS0_mRS1_, symObjAddr: 0x62FC, symBinAddr: 0x100008F78, symSize: 0x44 }
  - { offset: 0x1F61E, size: 0x8, addend: 0x0, symName: __ZZNSt6vectorI6serverSaIS0_EE17_M_realloc_appendIJRKS0_EEEvDpOT_EN6_GuardD1Ev, symObjAddr: 0x6340, symBinAddr: 0x100008FBC, symSize: 0x60 }
  - { offset: 0x1F78C, size: 0x8, addend: 0x0, symName: __ZNSt12_Vector_baseI6serverSaIS0_EE19_M_get_Tp_allocatorEv, symObjAddr: 0x62E8, symBinAddr: 0x100008F64, symSize: 0x14 }
  - { offset: 0x1F7B6, size: 0x8, addend: 0x0, symName: __ZNSt12_Vector_baseI6serverSaIS0_EE13_M_deallocateEPS0_m, symObjAddr: 0x6290, symBinAddr: 0x100008F0C, symSize: 0x58 }
  - { offset: 0x1F85A, size: 0x8, addend: 0x0, symName: __ZNSt15__new_allocatorI6serverED2Ev, symObjAddr: 0x627C, symBinAddr: 0x100008EF8, symSize: 0x14 }
  - { offset: 0x1F89A, size: 0x8, addend: 0x0, symName: __ZNSt12_Vector_baseI6serverSaIS0_EE17_Vector_impl_dataC2Ev, symObjAddr: 0x6250, symBinAddr: 0x100008ECC, symSize: 0x2C }
  - { offset: 0x1F8D6, size: 0x8, addend: 0x0, symName: __ZNSt6vectorIxSaIxEE17_M_realloc_appendIJRKxEEEvDpOT_, symObjAddr: 0x6094, symBinAddr: 0x100008D10, symSize: 0x1BC }
  - { offset: 0x1FA5A, size: 0x8, addend: 0x0, symName: __ZZNSt6vectorIxSaIxEE17_M_realloc_appendIJRKxEEEvDpOT_EN6_GuardC1EPxmRS0_, symObjAddr: 0x5FF0, symBinAddr: 0x100008C6C, symSize: 0x44 }
  - { offset: 0x1FA9F, size: 0x8, addend: 0x0, symName: __ZZNSt6vectorIxSaIxEE17_M_realloc_appendIJRKxEEEvDpOT_EN6_GuardD1Ev, symObjAddr: 0x6034, symBinAddr: 0x100008CB0, symSize: 0x60 }
  - { offset: 0x1FC1E, size: 0x8, addend: 0x0, symName: __ZNSt4pairISt23_Rb_tree_const_iteratorIxEbEC1IRSt17_Rb_tree_iteratorIxERbLb1EEEOT_OT0_, symObjAddr: 0x5F9C, symBinAddr: 0x100008C18, symSize: 0x54 }
  - { offset: 0x1FC68, size: 0x8, addend: 0x0, symName: __ZNSt8_Rb_treeIxxSt9_IdentityIxESt4lessIxESaIxEE16_M_insert_uniqueIRKxEESt4pairISt17_Rb_tree_iteratorIxEbEOT_, symObjAddr: 0x5ED0, symBinAddr: 0x100008B4C, symSize: 0xCC }
  - { offset: 0x1FCE4, size: 0x8, addend: 0x0, symName: __ZNSt8_Rb_treeIxSt4pairIKxSt3setIxSt4lessIxESaIxEEESt10_Select1stIS7_ES4_SaIS7_EE22_M_emplace_hint_uniqueIJRKSt21piecewise_construct_tSt5tupleIJRS1_EESG_IJEEEEESt17_Rb_tree_iteratorIS7_ESt23_Rb_tree_const_iteratorIS7_EDpOT_, symObjAddr: 0x5DF8, symBinAddr: 0x100008A74, symSize: 0xD8 }
  - { offset: 0x1FDA2, size: 0x8, addend: 0x0, symName: __ZNSt23_Rb_tree_const_iteratorISt4pairIKxSt3setIxSt4lessIxESaIxEEEEC1ERKSt17_Rb_tree_iteratorIS7_E, symObjAddr: 0x5DD0, symBinAddr: 0x100008A4C, symSize: 0x28 }
  - { offset: 0x1FE03, size: 0x8, addend: 0x0, symName: __ZNSt5tupleIJRKxEEC1ILb1ELb1EEES1_, symObjAddr: 0x5DA8, symBinAddr: 0x100008A24, symSize: 0x28 }
  - { offset: 0x1FE3C, size: 0x8, addend: 0x0, symName: __ZNKSt4lessIxEclERKxS2_, symObjAddr: 0x5D74, symBinAddr: 0x1000089F0, symSize: 0x34 }
  - { offset: 0x1FE86, size: 0x8, addend: 0x0, symName: __ZNKSt17_Rb_tree_iteratorISt4pairIKxSt3setIxSt4lessIxESaIxEEEEdeEv, symObjAddr: 0x5D54, symBinAddr: 0x1000089D0, symSize: 0x20 }
  - { offset: 0x1FEB0, size: 0x8, addend: 0x0, symName: __ZNKSt3mapIxSt3setIxSt4lessIxESaIxEES2_SaISt4pairIKxS4_EEE8key_compEv, symObjAddr: 0x5D28, symBinAddr: 0x1000089A4, symSize: 0x2C }
  - { offset: 0x1FEDB, size: 0x8, addend: 0x0, symName: __ZSteqRKSt17_Rb_tree_iteratorISt4pairIKxSt3setIxSt4lessIxESaIxEEEESA_, symObjAddr: 0x5CF8, symBinAddr: 0x100008974, symSize: 0x30 }
  - { offset: 0x1FF18, size: 0x8, addend: 0x0, symName: __ZNSt3mapIxSt3setIxSt4lessIxESaIxEES2_SaISt4pairIKxS4_EEE3endEv, symObjAddr: 0x5CDC, symBinAddr: 0x100008958, symSize: 0x1C }
  - { offset: 0x1FF42, size: 0x8, addend: 0x0, symName: __ZNSt3mapIxSt3setIxSt4lessIxESaIxEES2_SaISt4pairIKxS4_EEE11lower_boundERS6_, symObjAddr: 0x5CB8, symBinAddr: 0x100008934, symSize: 0x24 }
  - { offset: 0x1FF77, size: 0x8, addend: 0x0, symName: __ZSt22__uninitialized_copy_aIP12merged_agentS1_S0_ET0_T_S3_S2_RSaIT1_E, symObjAddr: 0x5C88, symBinAddr: 0x100008904, symSize: 0x30 }
  - { offset: 0x1FFE3, size: 0x8, addend: 0x0, symName: __ZSt4copyIP12merged_agentS1_ET0_T_S3_S2_, symObjAddr: 0x5C40, symBinAddr: 0x1000088BC, symSize: 0x48 }
  - { offset: 0x2007D, size: 0x8, addend: 0x0, symName: __ZNSt6vectorI12merged_agentSaIS0_EE3endEv, symObjAddr: 0x5C18, symBinAddr: 0x100008894, symSize: 0x28 }
  - { offset: 0x200A2, size: 0x8, addend: 0x0, symName: __ZSt4copyIN9__gnu_cxx17__normal_iteratorIPK12merged_agentSt6vectorIS2_SaIS2_EEEENS1_IPS2_S7_EEET0_T_SC_SB_, symObjAddr: 0x5BD0, symBinAddr: 0x10000884C, symSize: 0x48 }
  - { offset: 0x20101, size: 0x8, addend: 0x0, symName: __ZNSt6vectorI12merged_agentSaIS0_EE5beginEv, symObjAddr: 0x5BAC, symBinAddr: 0x100008828, symSize: 0x24 }
  - { offset: 0x2012B, size: 0x8, addend: 0x0, symName: __ZNSt6vectorI12merged_agentSaIS0_EE20_M_allocate_and_copyIN9__gnu_cxx17__normal_iteratorIPKS0_S2_EEEEPS0_mT_SA_, symObjAddr: 0x5B28, symBinAddr: 0x1000087A4, symSize: 0x84 }
  - { offset: 0x2019F, size: 0x8, addend: 0x0, symName: __ZNKSt6vectorI12merged_agentSaIS0_EE8capacityEv, symObjAddr: 0x5AF4, symBinAddr: 0x100008770, symSize: 0x34 }
  - { offset: 0x201F6, size: 0x8, addend: 0x0, symName: __ZNSt6vectorI12merged_agentSaIS0_EE5clearEv, symObjAddr: 0x5AC8, symBinAddr: 0x100008744, symSize: 0x2C }
  - { offset: 0x20232, size: 0x8, addend: 0x0, symName: __ZNSt8_Rb_treeIxSt4pairIKxSt3setIxSt4lessIxESaIxEEESt10_Select1stIS7_ES4_SaIS7_EE8_M_beginEv, symObjAddr: 0x5AAC, symBinAddr: 0x100008728, symSize: 0x1C }
  - { offset: 0x2025C, size: 0x8, addend: 0x0, symName: __ZNSt8_Rb_treeIxSt4pairIKxSt3setIxSt4lessIxESaIxEEESt10_Select1stIS7_ES4_SaIS7_EE8_M_eraseEPSt13_Rb_tree_nodeIS7_E, symObjAddr: 0x5A48, symBinAddr: 0x1000086C4, symSize: 0x64 }
  - { offset: 0x202DE, size: 0x8, addend: 0x0, symName: __ZNSt15__new_allocatorISt13_Rb_tree_nodeISt4pairIKxSt3setIxSt4lessIxESaIxEEEEED2Ev, symObjAddr: 0x5A34, symBinAddr: 0x1000086B0, symSize: 0x14 }
  - { offset: 0x2031A, size: 0x8, addend: 0x0, symName: __ZNKSt8_Rb_treeIxxSt9_IdentityIxESt4lessIxESaIxEE4sizeEv, symObjAddr: 0x5A1C, symBinAddr: 0x100008698, symSize: 0x18 }
  - { offset: 0x20344, size: 0x8, addend: 0x0, symName: __ZNKSt13_Rb_tree_nodeISt4pairIKxSt3setIxSt4lessIxESaIxEEEE9_M_valptrEv, symObjAddr: 0x59FC, symBinAddr: 0x100008678, symSize: 0x20 }
  - { offset: 0x2036E, size: 0x8, addend: 0x0, symName: __ZNKSt8_Rb_treeIxSt4pairIKxSt3setIxSt4lessIxESaIxEEESt10_Select1stIS7_ES4_SaIS7_EE3endEv, symObjAddr: 0x59D4, symBinAddr: 0x100008650, symSize: 0x28 }
  - { offset: 0x20398, size: 0x8, addend: 0x0, symName: __ZNKSt8_Rb_treeIxSt4pairIKxSt3setIxSt4lessIxESaIxEEESt10_Select1stIS7_ES4_SaIS7_EE5beginEv, symObjAddr: 0x59AC, symBinAddr: 0x100008628, symSize: 0x28 }
  - { offset: 0x203E9, size: 0x8, addend: 0x0, symName: __ZNSt12_Vector_baseI12merged_agentSaIS0_EE17_Vector_impl_dataC2EOS3_, symObjAddr: 0x593C, symBinAddr: 0x1000085B8, symSize: 0x70 }
  - { offset: 0x20442, size: 0x8, addend: 0x0, symName: __ZSt4moveIRNSt12_Vector_baseI12merged_agentSaIS1_EE12_Vector_implEEONSt16remove_referenceIT_E4typeEOS7_, symObjAddr: 0x5928, symBinAddr: 0x1000085A4, symSize: 0x14 }
  - { offset: 0x20477, size: 0x8, addend: 0x0, symName: __ZNSt6vectorI12merged_agentSaIS0_EE17_M_realloc_appendIJRKS0_EEEvDpOT_, symObjAddr: 0x5700, symBinAddr: 0x10000837C, symSize: 0x228 }
  - { offset: 0x205FB, size: 0x8, addend: 0x0, symName: __ZZNSt6vectorI12merged_agentSaIS0_EE17_M_realloc_appendIJRKS0_EEEvDpOT_EN6_GuardC1EPS0_mRS1_, symObjAddr: 0x565C, symBinAddr: 0x1000082D8, symSize: 0x44 }
  - { offset: 0x20640, size: 0x8, addend: 0x0, symName: __ZZNSt6vectorI12merged_agentSaIS0_EE17_M_realloc_appendIJRKS0_EEEvDpOT_EN6_GuardD1Ev, symObjAddr: 0x56A0, symBinAddr: 0x10000831C, symSize: 0x60 }
  - { offset: 0x2079B, size: 0x8, addend: 0x0, symName: __ZNSt23_Rb_tree_const_iteratorIxEC1ERKSt17_Rb_tree_iteratorIxE, symObjAddr: 0x5634, symBinAddr: 0x1000082B0, symSize: 0x28 }
  - { offset: 0x207CA, size: 0x8, addend: 0x0, symName: __ZNSt8_Rb_treeIxxSt9_IdentityIxESt4lessIxESaIxEE4findERKx, symObjAddr: 0x558C, symBinAddr: 0x100008208, symSize: 0xA8 }
  - { offset: 0x20815, size: 0x8, addend: 0x0, symName: __ZNSt8_Rb_treeIxxSt9_IdentityIxESt4lessIxESaIxEE22_M_insert_range_uniqueISt23_Rb_tree_const_iteratorIxEEENSt9enable_ifIXsrSt7is_sameIxNSt15iterator_traitsIT_E10value_typeEE5valueEvE4typeESC_SC_, symObjAddr: 0x54FC, symBinAddr: 0x100008178, symSize: 0x90 }
  - { offset: 0x20879, size: 0x8, addend: 0x0, symName: __ZNSt8_Rb_treeIxxSt9_IdentityIxESt4lessIxESaIxEE7_M_copyILb0ENS5_20_Reuse_or_alloc_nodeEEEPSt13_Rb_tree_nodeIxERKS5_RT0_, symObjAddr: 0x5468, symBinAddr: 0x1000080E4, symSize: 0x94 }
  - { offset: 0x2090B, size: 0x8, addend: 0x0, symName: __ZNSt8_Rb_treeIxxSt9_IdentityIxESt4lessIxESaIxEE20_Reuse_or_alloc_nodeD1Ev, symObjAddr: 0x5434, symBinAddr: 0x1000080B0, symSize: 0x34 }
  - { offset: 0x20959, size: 0x8, addend: 0x0, symName: __ZNSt8_Rb_treeIxxSt9_IdentityIxESt4lessIxESaIxEE20_Reuse_or_alloc_nodeC1ERS5_, symObjAddr: 0x5394, symBinAddr: 0x100008010, symSize: 0xA0 }
  - { offset: 0x209B5, size: 0x8, addend: 0x0, symName: __ZNSt8_Rb_treeIxxSt9_IdentityIxESt4lessIxESaIxEE5clearEv, symObjAddr: 0x535C, symBinAddr: 0x100007FD8, symSize: 0x38 }
  - { offset: 0x209F1, size: 0x8, addend: 0x0, symName: __ZNKSt8_Rb_treeIxxSt9_IdentityIxESt4lessIxESaIxEE21_M_get_Node_allocatorEv, symObjAddr: 0x5348, symBinAddr: 0x100007FC4, symSize: 0x14 }
  - { offset: 0x20A1B, size: 0x8, addend: 0x0, symName: __ZNSt8_Rb_treeIxxSt9_IdentityIxESt4lessIxESaIxEE21_M_get_Node_allocatorEv, symObjAddr: 0x5334, symBinAddr: 0x100007FB0, symSize: 0x14 }
  - { offset: 0x20A40, size: 0x8, addend: 0x0, symName: __ZSt11__addressofIKSt8_Rb_treeIxxSt9_IdentityIxESt4lessIxESaIxEEEPT_RS8_, symObjAddr: 0x5320, symBinAddr: 0x100007F9C, symSize: 0x14 }
  - { offset: 0x20A99, size: 0x8, addend: 0x0, symName: __ZNSt15__new_allocatorISt13_Rb_tree_nodeIxEED2Ev, symObjAddr: 0x530C, symBinAddr: 0x100007F88, symSize: 0x14 }
  - { offset: 0x20AD9, size: 0x8, addend: 0x0, symName: __ZNSt20_Rb_tree_key_compareISt4lessIxEEC2Ev, symObjAddr: 0x52F8, symBinAddr: 0x100007F74, symSize: 0x14 }
  - { offset: 0x20B15, size: 0x8, addend: 0x0, symName: __ZNK9__gnu_cxx17__normal_iteratorIP11merged_pairSt6vectorIS1_SaIS1_EEE4baseEv, symObjAddr: 0x52E4, symBinAddr: 0x100007F60, symSize: 0x14 }
  - { offset: 0x20B3A, size: 0x8, addend: 0x0, symName: __ZSt6__sortIN9__gnu_cxx17__normal_iteratorIP11merged_pairSt6vectorIS2_SaIS2_EEEENS0_5__ops15_Iter_comp_iterIPFbRKS2_SB_EEEEvT_SF_T0_, symObjAddr: 0x5274, symBinAddr: 0x100007EF0, symSize: 0x70 }
  - { offset: 0x20B94, size: 0x8, addend: 0x0, symName: __ZN9__gnu_cxx5__ops16__iter_comp_iterIPFbRK11merged_pairS4_EEENS0_15_Iter_comp_iterIT_EES8_, symObjAddr: 0x5248, symBinAddr: 0x100007EC4, symSize: 0x2C }
  - { offset: 0x20BF1, size: 0x8, addend: 0x0, symName: __ZN9__gnu_cxx17__normal_iteratorIP11merged_pairSt6vectorIS1_SaIS1_EEEC1ERKS2_, symObjAddr: 0x5220, symBinAddr: 0x100007E9C, symSize: 0x28 }
  - { offset: 0x20C20, size: 0x8, addend: 0x0, symName: __ZNSt6vectorIxSaIxEE15_M_erase_at_endEPx, symObjAddr: 0x5198, symBinAddr: 0x100007E14, symSize: 0x88 }
  - { offset: 0x20CB4, size: 0x8, addend: 0x0, symName: __ZNSt6vectorIxSaIxEE3endEv, symObjAddr: 0x5170, symBinAddr: 0x100007DEC, symSize: 0x28 }
  - { offset: 0x20CDE, size: 0x8, addend: 0x0, symName: __ZNSt6vectorIxSaIxEE14_M_fill_insertEN9__gnu_cxx17__normal_iteratorIPxS1_EEmRKx, symObjAddr: 0x4D24, symBinAddr: 0x1000079A0, symSize: 0x44C }
  - { offset: 0x20EEE, size: 0x8, addend: 0x0, symName: __ZNSt12_Vector_baseIxSaIxEE19_M_get_Tp_allocatorEv, symObjAddr: 0x4D10, symBinAddr: 0x10000798C, symSize: 0x14 }
  - { offset: 0x20F18, size: 0x8, addend: 0x0, symName: __ZNSt12_Vector_baseIxSaIxEE13_M_deallocateEPxm, symObjAddr: 0x4CB8, symBinAddr: 0x100007934, symSize: 0x58 }
  - { offset: 0x20FBC, size: 0x8, addend: 0x0, symName: __ZNSt15__new_allocatorIxED2Ev, symObjAddr: 0x4CA4, symBinAddr: 0x100007920, symSize: 0x14 }
  - { offset: 0x20FFC, size: 0x8, addend: 0x0, symName: __ZNSt12_Vector_baseIxSaIxEE17_Vector_impl_dataC2Ev, symObjAddr: 0x4C78, symBinAddr: 0x1000078F4, symSize: 0x2C }
  - { offset: 0x21038, size: 0x8, addend: 0x0, symName: __ZNSt12_Vector_baseI12merged_agentSaIS0_EE13_M_deallocateEPS0_m, symObjAddr: 0x4C20, symBinAddr: 0x10000789C, symSize: 0x58 }
  - { offset: 0x210DC, size: 0x8, addend: 0x0, symName: __ZNSt15__new_allocatorI12merged_agentED2Ev, symObjAddr: 0x4C0C, symBinAddr: 0x100007888, symSize: 0x14 }
  - { offset: 0x2111C, size: 0x8, addend: 0x0, symName: __ZNSt12_Vector_baseI12merged_agentSaIS0_EE17_Vector_impl_dataC2Ev, symObjAddr: 0x4BE0, symBinAddr: 0x10000785C, symSize: 0x2C }
  - { offset: 0x2118E, size: 0x8, addend: 0x0, symName: __ZSt22__uninitialized_copy_aIN9__gnu_cxx17__normal_iteratorIPK12merged_agentSt6vectorIS2_SaIS2_EEEEPS2_S2_ET0_T_SB_SA_RSaIT1_E, symObjAddr: 0x4BB0, symBinAddr: 0x10000782C, symSize: 0x30 }
  - { offset: 0x211FF, size: 0x8, addend: 0x0, symName: __ZNSt12_Vector_baseI12merged_agentSaIS0_EE19_M_get_Tp_allocatorEv, symObjAddr: 0x4B9C, symBinAddr: 0x100007818, symSize: 0x14 }
  - { offset: 0x21229, size: 0x8, addend: 0x0, symName: __ZNKSt6vectorI12merged_agentSaIS0_EE3endEv, symObjAddr: 0x4B74, symBinAddr: 0x1000077F0, symSize: 0x28 }
  - { offset: 0x21253, size: 0x8, addend: 0x0, symName: __ZNKSt6vectorI12merged_agentSaIS0_EE5beginEv, symObjAddr: 0x4B50, symBinAddr: 0x1000077CC, symSize: 0x24 }
  - { offset: 0x212B3, size: 0x8, addend: 0x0, symName: __ZNSt12_Vector_baseI12merged_agentSaIS0_EEC2EmRKS1_, symObjAddr: 0x4AFC, symBinAddr: 0x100007778, symSize: 0x54 }
  - { offset: 0x21300, size: 0x8, addend: 0x0, symName: __ZNKSt12_Vector_baseI12merged_agentSaIS0_EE19_M_get_Tp_allocatorEv, symObjAddr: 0x4AE8, symBinAddr: 0x100007764, symSize: 0x14 }
  - { offset: 0x2132A, size: 0x8, addend: 0x0, symName: __ZNSt6vectorI11merged_pairSaIS0_EE17_M_realloc_appendIJRKS0_EEEvDpOT_, symObjAddr: 0x491C, symBinAddr: 0x100007598, symSize: 0x1CC }
  - { offset: 0x214AE, size: 0x8, addend: 0x0, symName: __ZZNSt6vectorI11merged_pairSaIS0_EE17_M_realloc_appendIJRKS0_EEEvDpOT_EN6_GuardC1EPS0_mRS1_, symObjAddr: 0x4878, symBinAddr: 0x1000074F4, symSize: 0x44 }
  - { offset: 0x214F3, size: 0x8, addend: 0x0, symName: __ZZNSt6vectorI11merged_pairSaIS0_EE17_M_realloc_appendIJRKS0_EEEvDpOT_EN6_GuardD1Ev, symObjAddr: 0x48BC, symBinAddr: 0x100007538, symSize: 0x60 }
  - { offset: 0x2162A, size: 0x8, addend: 0x0, symName: __ZNSt8_Rb_treeIxxSt9_IdentityIxESt4lessIxESaIxEE8_M_beginEv, symObjAddr: 0x485C, symBinAddr: 0x1000074D8, symSize: 0x1C }
  - { offset: 0x21654, size: 0x8, addend: 0x0, symName: __ZNSt8_Rb_treeIxxSt9_IdentityIxESt4lessIxESaIxEE8_M_eraseEPSt13_Rb_tree_nodeIxE, symObjAddr: 0x47F8, symBinAddr: 0x100007474, symSize: 0x64 }
  - { offset: 0x216B2, size: 0x8, addend: 0x0, symName: __ZNSt8_Rb_treeIxxSt9_IdentityIxESt4lessIxESaIxEE7_M_copyERKS5_, symObjAddr: 0x47C0, symBinAddr: 0x10000743C, symSize: 0x38 }
  - { offset: 0x216FD, size: 0x8, addend: 0x0, symName: __ZNSt8_Rb_treeIxxSt9_IdentityIxESt4lessIxESaIxEE7_M_rootEv, symObjAddr: 0x47A8, symBinAddr: 0x100007424, symSize: 0x18 }
  - { offset: 0x21727, size: 0x8, addend: 0x0, symName: __ZNKSt8_Rb_treeIxxSt9_IdentityIxESt4lessIxESaIxEE7_M_rootEv, symObjAddr: 0x4790, symBinAddr: 0x10000740C, symSize: 0x18 }
  - { offset: 0x21779, size: 0x8, addend: 0x0, symName: __ZNSt8_Rb_treeIxxSt9_IdentityIxESt4lessIxESaIxEE13_Rb_tree_implIS3_Lb1EEC1ERKS7_, symObjAddr: 0x46F0, symBinAddr: 0x10000736C, symSize: 0xA0 }
  - { offset: 0x218FD, size: 0x8, addend: 0x0, symName: __ZNSt12_Vector_baseI11merged_pairSaIS0_EE19_M_get_Tp_allocatorEv, symObjAddr: 0x46DC, symBinAddr: 0x100007358, symSize: 0x14 }
  - { offset: 0x21927, size: 0x8, addend: 0x0, symName: __ZNSt12_Vector_baseI11merged_pairSaIS0_EE13_M_deallocateEPS0_m, symObjAddr: 0x4684, symBinAddr: 0x100007300, symSize: 0x58 }
  - { offset: 0x219CB, size: 0x8, addend: 0x0, symName: __ZNSt15__new_allocatorI11merged_pairED2Ev, symObjAddr: 0x4670, symBinAddr: 0x1000072EC, symSize: 0x14 }
  - { offset: 0x21A0B, size: 0x8, addend: 0x0, symName: __ZNSt12_Vector_baseI11merged_pairSaIS0_EE17_Vector_impl_dataC2Ev, symObjAddr: 0x4644, symBinAddr: 0x1000072C0, symSize: 0x2C }
  - { offset: 0x21A47, size: 0x8, addend: 0x0, symName: __ZNKSt8_Rb_treeIxxSt9_IdentityIxESt4lessIxESaIxEE4findERKx, symObjAddr: 0x459C, symBinAddr: 0x100007218, symSize: 0xA8 }
  - { offset: 0x21A92, size: 0x8, addend: 0x0, symName: __ZNKSt13_Rb_tree_nodeIxE9_M_valptrEv, symObjAddr: 0x457C, symBinAddr: 0x1000071F8, symSize: 0x20 }
  - { offset: 0x21ABC, size: 0x8, addend: 0x0, symName: __ZNKSt8_Rb_treeIxxSt9_IdentityIxESt4lessIxESaIxEE3endEv, symObjAddr: 0x4554, symBinAddr: 0x1000071D0, symSize: 0x28 }
  - { offset: 0x21AE6, size: 0x8, addend: 0x0, symName: __ZNKSt8_Rb_treeIxxSt9_IdentityIxESt4lessIxESaIxEE5beginEv, symObjAddr: 0x452C, symBinAddr: 0x1000071A8, symSize: 0x28 }
  - { offset: 0x21B0B, size: 0x8, addend: 0x0, symName: __ZN9__gnu_cxx11char_traitsIcE2eqERKcS3_, symObjAddr: 0x44FC, symBinAddr: 0x100007178, symSize: 0x30 }
  - { offset: 0x21B46, size: 0x8, addend: 0x0, symName: __ZNKSt6vectorIxSaIxEE4sizeEv, symObjAddr: 0x44D4, symBinAddr: 0x100007150, symSize: 0x28 }
  - { offset: 0x21B98, size: 0x8, addend: 0x0, symName: __ZNSt6vectorIxSaIxEEC1ERKS1_, symObjAddr: 0x43C0, symBinAddr: 0x10000703C, symSize: 0x114 }
  - { offset: 0x21CD3, size: 0x8, addend: 0x0, symName: __ZNSt6vectorI5agentSaIS0_EEC1ERKS2_, symObjAddr: 0x42AC, symBinAddr: 0x100006F28, symSize: 0x114 }
  - { offset: 0x21DE1, size: 0x8, addend: 0x0, symName: __ZSteqIcSt11char_traitsIcESaIcEEbRKNSt7__cxx1112basic_stringIT_T0_T1_EEPKS5_, symObjAddr: 0x4238, symBinAddr: 0x100006EB4, symSize: 0x74 }
  - { offset: 0x21E39, size: 0x8, addend: 0x0, symName: __ZNSt6vectorI5agentSaIS0_EE9push_backERKS0_, symObjAddr: 0x413C, symBinAddr: 0x100006DB8, symSize: 0xFC }
  - { offset: 0x21EFB, size: 0x8, addend: 0x0, symName: __ZNSt6vectorI5agentSaIS0_EED1Ev, symObjAddr: 0x40E0, symBinAddr: 0x100006D5C, symSize: 0x5C }
  - { offset: 0x21F7B, size: 0x8, addend: 0x0, symName: __ZNSt12_Vector_baseI5agentSaIS0_EED2Ev, symObjAddr: 0x407C, symBinAddr: 0x100006CF8, symSize: 0x64 }
  - { offset: 0x21FDB, size: 0x8, addend: 0x0, symName: __ZNSt12_Vector_baseI5agentSaIS0_EE12_Vector_implC1Ev, symObjAddr: 0x4044, symBinAddr: 0x100006CC0, symSize: 0x38 }
  - { offset: 0x2204D, size: 0x8, addend: 0x0, symName: __ZNKSt6vectorI6serverSaIS0_EE4sizeEv, symObjAddr: 0x401C, symBinAddr: 0x100006C98, symSize: 0x28 }
  - { offset: 0x22077, size: 0x8, addend: 0x0, symName: __ZNSt6vectorI6serverSaIS0_EEixEm, symObjAddr: 0x3FF4, symBinAddr: 0x100006C70, symSize: 0x28 }
  - { offset: 0x220B1, size: 0x8, addend: 0x0, symName: __ZNSt6vectorI6serverSaIS0_EE9push_backERKS0_, symObjAddr: 0x3EF8, symBinAddr: 0x100006B74, symSize: 0xFC }
  - { offset: 0x22173, size: 0x8, addend: 0x0, symName: __ZNSt6vectorI6serverSaIS0_EED1Ev, symObjAddr: 0x3E9C, symBinAddr: 0x100006B18, symSize: 0x5C }
  - { offset: 0x221F3, size: 0x8, addend: 0x0, symName: __ZNSt12_Vector_baseI6serverSaIS0_EED2Ev, symObjAddr: 0x3E4C, symBinAddr: 0x100006AC8, symSize: 0x50 }
  - { offset: 0x22253, size: 0x8, addend: 0x0, symName: __ZNSt12_Vector_baseI6serverSaIS0_EE12_Vector_implC1Ev, symObjAddr: 0x3E14, symBinAddr: 0x100006A90, symSize: 0x38 }
  - { offset: 0x222BF, size: 0x8, addend: 0x0, symName: __ZNSt6vectorIxSaIxEE9push_backERKx, symObjAddr: 0x3D4C, symBinAddr: 0x1000069C8, symSize: 0xC8 }
  - { offset: 0x22365, size: 0x8, addend: 0x0, symName: __ZNKSt6vectorI5agentSaIS0_EE4sizeEv, symObjAddr: 0x3D10, symBinAddr: 0x10000698C, symSize: 0x3C }
  - { offset: 0x2238F, size: 0x8, addend: 0x0, symName: __ZNSt3setIxSt4lessIxESaIxEE6insertERKx, symObjAddr: 0x3CD0, symBinAddr: 0x10000694C, symSize: 0x40 }
  - { offset: 0x223DA, size: 0x8, addend: 0x0, symName: __ZNSt3mapIxSt3setIxSt4lessIxESaIxEES2_SaISt4pairIKxS4_EEEixERS6_, symObjAddr: 0x3BE4, symBinAddr: 0x100006860, symSize: 0xEC }
  - { offset: 0x22425, size: 0x8, addend: 0x0, symName: __ZNSt6vectorI5agentSaIS0_EEixEm, symObjAddr: 0x3BB0, symBinAddr: 0x10000682C, symSize: 0x34 }
  - { offset: 0x2245F, size: 0x8, addend: 0x0, symName: __ZNSt23_Rb_tree_const_iteratorIxEppEi, symObjAddr: 0x3B70, symBinAddr: 0x1000067EC, symSize: 0x40 }
  - { offset: 0x224A3, size: 0x8, addend: 0x0, symName: __ZNSt6vectorI12merged_agentSaIS0_EEaSERKS2_, symObjAddr: 0x37D8, symBinAddr: 0x100006454, symSize: 0x398 }
  - { offset: 0x22625, size: 0x8, addend: 0x0, symName: __ZSt11__addressofIKSt6vectorI12merged_agentSaIS1_EEEPT_RS5_, symObjAddr: 0x37C4, symBinAddr: 0x100006440, symSize: 0x14 }
  - { offset: 0x2267E, size: 0x8, addend: 0x0, symName: __ZNSt8_Rb_treeIxSt4pairIKxSt3setIxSt4lessIxESaIxEEESt10_Select1stIS7_ES4_SaIS7_EED1Ev, symObjAddr: 0x3790, symBinAddr: 0x10000640C, symSize: 0x34 }
  - { offset: 0x226DE, size: 0x8, addend: 0x0, symName: __ZNSt8_Rb_treeIxSt4pairIKxSt3setIxSt4lessIxESaIxEEESt10_Select1stIS7_ES4_SaIS7_EE13_Rb_tree_implIS4_Lb1EEC1Ev, symObjAddr: 0x374C, symBinAddr: 0x1000063C8, symSize: 0x44 }
  - { offset: 0x2274B, size: 0x8, addend: 0x0, symName: __ZNKSt3setIxSt4lessIxESaIxEE4sizeEv, symObjAddr: 0x3730, symBinAddr: 0x1000063AC, symSize: 0x1C }
  - { offset: 0x22775, size: 0x8, addend: 0x0, symName: __ZNKSt23_Rb_tree_const_iteratorISt4pairIKxSt3setIxSt4lessIxESaIxEEEEdeEv, symObjAddr: 0x3710, symBinAddr: 0x10000638C, symSize: 0x20 }
  - { offset: 0x2279F, size: 0x8, addend: 0x0, symName: __ZNSt23_Rb_tree_const_iteratorISt4pairIKxSt3setIxSt4lessIxESaIxEEEEppEv, symObjAddr: 0x36E0, symBinAddr: 0x10000635C, symSize: 0x30 }
  - { offset: 0x227CA, size: 0x8, addend: 0x0, symName: __ZStneRKSt23_Rb_tree_const_iteratorISt4pairIKxSt3setIxSt4lessIxESaIxEEEESA_, symObjAddr: 0x36B0, symBinAddr: 0x10000632C, symSize: 0x30 }
  - { offset: 0x22807, size: 0x8, addend: 0x0, symName: __ZNKSt3mapIxSt3setIxSt4lessIxESaIxEES2_SaISt4pairIKxS4_EEE3endEv, symObjAddr: 0x3694, symBinAddr: 0x100006310, symSize: 0x1C }
  - { offset: 0x22831, size: 0x8, addend: 0x0, symName: __ZNKSt3mapIxSt3setIxSt4lessIxESaIxEES2_SaISt4pairIKxS4_EEE5beginEv, symObjAddr: 0x3678, symBinAddr: 0x1000062F4, symSize: 0x1C }
  - { offset: 0x22882, size: 0x8, addend: 0x0, symName: __ZNSt12_Vector_baseI12merged_agentSaIS0_EE12_Vector_implC1EOS3_, symObjAddr: 0x360C, symBinAddr: 0x100006288, symSize: 0x6C }
  - { offset: 0x22909, size: 0x8, addend: 0x0, symName: __ZNSt6vectorI12merged_agentSaIS0_EE9push_backERKS0_, symObjAddr: 0x3510, symBinAddr: 0x10000618C, symSize: 0xFC }
  - { offset: 0x229A7, size: 0x8, addend: 0x0, symName: __ZNSt3setIxSt4lessIxESaIxEE4findERKx, symObjAddr: 0x34D8, symBinAddr: 0x100006154, symSize: 0x38 }
  - { offset: 0x229E1, size: 0x8, addend: 0x0, symName: __ZNSt3setIxSt4lessIxESaIxEE6insertISt23_Rb_tree_const_iteratorIxEEEvT_S7_, symObjAddr: 0x34A8, symBinAddr: 0x100006124, symSize: 0x30 }
  - { offset: 0x22A34, size: 0x8, addend: 0x0, symName: __ZNSt8_Rb_treeIxxSt9_IdentityIxESt4lessIxESaIxEEaSERKS5_, symObjAddr: 0x334C, symBinAddr: 0x100005FC8, symSize: 0x15C }
  - { offset: 0x22B94, size: 0x8, addend: 0x0, symName: __ZNSt8_Rb_treeIxxSt9_IdentityIxESt4lessIxESaIxEE13_Rb_tree_implIS3_Lb1EEC1Ev, symObjAddr: 0x3308, symBinAddr: 0x100005F84, symSize: 0x44 }
  - { offset: 0x22C01, size: 0x8, addend: 0x0, symName: __ZNSt6vectorIxSaIxEEixEm, symObjAddr: 0x32E0, symBinAddr: 0x100005F5C, symSize: 0x28 }
  - { offset: 0x22C3B, size: 0x8, addend: 0x0, symName: __ZNK9__gnu_cxx17__normal_iteratorIP11merged_pairSt6vectorIS1_SaIS1_EEEdeEv, symObjAddr: 0x32C8, symBinAddr: 0x100005F44, symSize: 0x18 }
  - { offset: 0x22C65, size: 0x8, addend: 0x0, symName: __ZN9__gnu_cxx17__normal_iteratorIP11merged_pairSt6vectorIS1_SaIS1_EEEppEv, symObjAddr: 0x32A0, symBinAddr: 0x100005F1C, symSize: 0x28 }
  - { offset: 0x22C8A, size: 0x8, addend: 0x0, symName: __ZN9__gnu_cxxneIP11merged_pairSt6vectorIS1_SaIS1_EEEEbRKNS_17__normal_iteratorIT_T0_EESB_, symObjAddr: 0x325C, symBinAddr: 0x100005ED8, symSize: 0x44 }
  - { offset: 0x22CD9, size: 0x8, addend: 0x0, symName: __ZNSt6vectorI11merged_pairSaIS0_EEixEm, symObjAddr: 0x3234, symBinAddr: 0x100005EB0, symSize: 0x28 }
  - { offset: 0x22D0E, size: 0x8, addend: 0x0, symName: __ZSt4sortIN9__gnu_cxx17__normal_iteratorIP11merged_pairSt6vectorIS2_SaIS2_EEEEPFbRKS2_S9_EEvT_SC_T0_, symObjAddr: 0x31FC, symBinAddr: 0x100005E78, symSize: 0x38 }
  - { offset: 0x22D6D, size: 0x8, addend: 0x0, symName: __ZNSt6vectorI11merged_pairSaIS0_EE3endEv, symObjAddr: 0x31D4, symBinAddr: 0x100005E50, symSize: 0x28 }
  - { offset: 0x22D97, size: 0x8, addend: 0x0, symName: __ZNSt6vectorI11merged_pairSaIS0_EE5beginEv, symObjAddr: 0x31B0, symBinAddr: 0x100005E2C, symSize: 0x24 }
  - { offset: 0x22DC1, size: 0x8, addend: 0x0, symName: __ZNSt6vectorIxSaIxEE6resizeEmRKx, symObjAddr: 0x30E0, symBinAddr: 0x100005D5C, symSize: 0xD0 }
  - { offset: 0x22E2F, size: 0x8, addend: 0x0, symName: __ZNSt6vectorIxSaIxEED1Ev, symObjAddr: 0x3084, symBinAddr: 0x100005D00, symSize: 0x5C }
  - { offset: 0x22EAF, size: 0x8, addend: 0x0, symName: __ZNSt12_Vector_baseIxSaIxEED2Ev, symObjAddr: 0x3034, symBinAddr: 0x100005CB0, symSize: 0x50 }
  - { offset: 0x22F0F, size: 0x8, addend: 0x0, symName: __ZNSt12_Vector_baseIxSaIxEE12_Vector_implC1Ev, symObjAddr: 0x2FFC, symBinAddr: 0x100005C78, symSize: 0x38 }
  - { offset: 0x22F7B, size: 0x8, addend: 0x0, symName: __ZNKSt6vectorI11merged_pairSaIS0_EE4sizeEv, symObjAddr: 0x2FD4, symBinAddr: 0x100005C50, symSize: 0x28 }
  - { offset: 0x22FC9, size: 0x8, addend: 0x0, symName: __ZNSt12_Vector_baseI12merged_agentSaIS0_EED2Ev, symObjAddr: 0x2F78, symBinAddr: 0x100005BF4, symSize: 0x5C }
  - { offset: 0x23029, size: 0x8, addend: 0x0, symName: __ZNSt12_Vector_baseI12merged_agentSaIS0_EE12_Vector_implC1Ev, symObjAddr: 0x2F40, symBinAddr: 0x100005BBC, symSize: 0x38 }
  - { offset: 0x230B9, size: 0x8, addend: 0x0, symName: __ZNSt6vectorI12merged_agentSaIS0_EED1Ev, symObjAddr: 0x2EE4, symBinAddr: 0x100005B60, symSize: 0x5C }
  - { offset: 0x2313D, size: 0x8, addend: 0x0, symName: __ZNSt6vectorI12merged_agentSaIS0_EEC1ERKS2_, symObjAddr: 0x2DD0, symBinAddr: 0x100005A4C, symSize: 0x114 }
  - { offset: 0x23250, size: 0x8, addend: 0x0, symName: __ZNSt6vectorI11merged_pairSaIS0_EE9push_backERKS0_, symObjAddr: 0x2CF8, symBinAddr: 0x100005974, symSize: 0xD8 }
  - { offset: 0x2331A, size: 0x8, addend: 0x0, symName: __ZNSt8_Rb_treeIxxSt9_IdentityIxESt4lessIxESaIxEED1Ev, symObjAddr: 0x2CC4, symBinAddr: 0x100005940, symSize: 0x34 }
  - { offset: 0x23368, size: 0x8, addend: 0x0, symName: __ZNSt8_Rb_treeIxxSt9_IdentityIxESt4lessIxESaIxEEC1ERKS5_, symObjAddr: 0x2C40, symBinAddr: 0x1000058BC, symSize: 0x84 }
  - { offset: 0x23397, size: 0x8, addend: 0x0, symName: __ZNSt6vectorI12merged_agentSaIS0_EEixEm, symObjAddr: 0x2C0C, symBinAddr: 0x100005888, symSize: 0x34 }
  - { offset: 0x233F5, size: 0x8, addend: 0x0, symName: __ZNSt6vectorI11merged_pairSaIS0_EED1Ev, symObjAddr: 0x2BB0, symBinAddr: 0x10000582C, symSize: 0x5C }
  - { offset: 0x23475, size: 0x8, addend: 0x0, symName: __ZNSt12_Vector_baseI11merged_pairSaIS0_EED2Ev, symObjAddr: 0x2B60, symBinAddr: 0x1000057DC, symSize: 0x50 }
  - { offset: 0x234D5, size: 0x8, addend: 0x0, symName: __ZNSt12_Vector_baseI11merged_pairSaIS0_EE12_Vector_implC1Ev, symObjAddr: 0x2B28, symBinAddr: 0x1000057A4, symSize: 0x38 }
  - { offset: 0x23541, size: 0x8, addend: 0x0, symName: __ZNKSt6vectorI12merged_agentSaIS0_EE4sizeEv, symObjAddr: 0x2AF4, symBinAddr: 0x100005770, symSize: 0x34 }
  - { offset: 0x2356B, size: 0x8, addend: 0x0, symName: __ZNKSt6vectorIxSaIxEEixEm, symObjAddr: 0x2ACC, symBinAddr: 0x100005748, symSize: 0x28 }
  - { offset: 0x235A5, size: 0x8, addend: 0x0, symName: __ZNKSt3setIxSt4lessIxESaIxEE4findERKx, symObjAddr: 0x2AA8, symBinAddr: 0x100005724, symSize: 0x24 }
  - { offset: 0x235DF, size: 0x8, addend: 0x0, symName: __ZNKSt23_Rb_tree_const_iteratorIxEdeEv, symObjAddr: 0x2A88, symBinAddr: 0x100005704, symSize: 0x20 }
  - { offset: 0x23609, size: 0x8, addend: 0x0, symName: __ZNSt23_Rb_tree_const_iteratorIxEppEv, symObjAddr: 0x2A58, symBinAddr: 0x1000056D4, symSize: 0x30 }
  - { offset: 0x2362E, size: 0x8, addend: 0x0, symName: __ZStneRKSt23_Rb_tree_const_iteratorIxES2_, symObjAddr: 0x2A28, symBinAddr: 0x1000056A4, symSize: 0x30 }
  - { offset: 0x2366B, size: 0x8, addend: 0x0, symName: __ZNKSt3setIxSt4lessIxESaIxEE3endEv, symObjAddr: 0x2A0C, symBinAddr: 0x100005688, symSize: 0x1C }
  - { offset: 0x23695, size: 0x8, addend: 0x0, symName: __ZNKSt3setIxSt4lessIxESaIxEE5beginEv, symObjAddr: 0x29F0, symBinAddr: 0x10000566C, symSize: 0x1C }
  - { offset: 0x236BA, size: 0x8, addend: 0x0, symName: __ZN9__gnu_cxx11char_traitsIcE6lengthEPKc, symObjAddr: 0x2998, symBinAddr: 0x100005614, symSize: 0x58 }
  - { offset: 0x236FA, size: 0x8, addend: 0x0, symName: _main, symObjAddr: 0x22AC, symBinAddr: 0x100004F28, symSize: 0x6EC }
  - { offset: 0x239B5, size: 0x8, addend: 0x0, symName: __ZN6answerD1Ev, symObjAddr: 0x2288, symBinAddr: 0x100004F04, symSize: 0x24 }
  - { offset: 0x239F8, size: 0x8, addend: 0x0, symName: __ZN6answerC1Ev, symObjAddr: 0x225C, symBinAddr: 0x100004ED8, symSize: 0x2C }
  - { offset: 0x23A45, size: 0x8, addend: 0x0, symName: __ZN5agentD1Ev, symObjAddr: 0x2238, symBinAddr: 0x100004EB4, symSize: 0x24 }
  - { offset: 0x23A88, size: 0x8, addend: 0x0, symName: __ZN5agentC1Ev, symObjAddr: 0x2208, symBinAddr: 0x100004E84, symSize: 0x30 }
  - { offset: 0x23AC8, size: 0x8, addend: 0x0, symName: __ZNSt6vectorI5agentSaIS0_EEC1Ev, symObjAddr: 0x21E8, symBinAddr: 0x100004E64, symSize: 0x20 }
  - { offset: 0x23B08, size: 0x8, addend: 0x0, symName: __ZNSt12_Vector_baseI5agentSaIS0_EEC2Ev, symObjAddr: 0x21C8, symBinAddr: 0x100004E44, symSize: 0x20 }
  - { offset: 0x23B55, size: 0x8, addend: 0x0, symName: __ZNSt12_Vector_baseI5agentSaIS0_EE12_Vector_implD1Ev, symObjAddr: 0x219C, symBinAddr: 0x100004E18, symSize: 0x2C }
  - { offset: 0x23BA2, size: 0x8, addend: 0x0, symName: __Z6greedyR6answerSt6vectorI5agentSaIS2_EEx, symObjAddr: 0x1BB4, symBinAddr: 0x100004830, symSize: 0x5E8 }
  - { offset: 0x23DD5, size: 0x8, addend: 0x0, symName: __ZN6serverD1Ev, symObjAddr: 0x1B90, symBinAddr: 0x10000480C, symSize: 0x24 }
  - { offset: 0x23E18, size: 0x8, addend: 0x0, symName: __ZN6serverC1Ev, symObjAddr: 0x1B6C, symBinAddr: 0x1000047E8, symSize: 0x24 }
  - { offset: 0x23E58, size: 0x8, addend: 0x0, symName: __ZNSt6vectorI6serverSaIS0_EEC1Ev, symObjAddr: 0x1B4C, symBinAddr: 0x1000047C8, symSize: 0x20 }
  - { offset: 0x23E98, size: 0x8, addend: 0x0, symName: __ZNSt12_Vector_baseI6serverSaIS0_EEC2Ev, symObjAddr: 0x1B2C, symBinAddr: 0x1000047A8, symSize: 0x20 }
  - { offset: 0x23EE5, size: 0x8, addend: 0x0, symName: __ZNSt12_Vector_baseI6serverSaIS0_EE12_Vector_implD1Ev, symObjAddr: 0x1B00, symBinAddr: 0x10000477C, symSize: 0x2C }
  - { offset: 0x23F31, size: 0x8, addend: 0x0, symName: __Z5solveR6answerSt6vectorI5agentSaIS2_EES1_I12merged_agentSaIS5_EExS1_IxSaIxEEx, symObjAddr: 0x163C, symBinAddr: 0x1000042B8, symSize: 0x4C4 }
  - { offset: 0x2411C, size: 0x8, addend: 0x0, symName: __ZNSt3mapIxSt3setIxSt4lessIxESaIxEES2_SaISt4pairIKxS4_EEED1Ev, symObjAddr: 0x161C, symBinAddr: 0x100004298, symSize: 0x20 }
  - { offset: 0x2415C, size: 0x8, addend: 0x0, symName: __ZNSt3mapIxSt3setIxSt4lessIxESaIxEES2_SaISt4pairIKxS4_EEEC1Ev, symObjAddr: 0x15FC, symBinAddr: 0x100004278, symSize: 0x20 }
  - { offset: 0x2419C, size: 0x8, addend: 0x0, symName: __ZNSt8_Rb_treeIxSt4pairIKxSt3setIxSt4lessIxESaIxEEESt10_Select1stIS7_ES4_SaIS7_EEC1Ev, symObjAddr: 0x15DC, symBinAddr: 0x100004258, symSize: 0x20 }
  - { offset: 0x241EA, size: 0x8, addend: 0x0, symName: __ZNSt8_Rb_treeIxSt4pairIKxSt3setIxSt4lessIxESaIxEEESt10_Select1stIS7_ES4_SaIS7_EE13_Rb_tree_implIS4_Lb1EED1Ev, symObjAddr: 0x15B0, symBinAddr: 0x10000422C, symSize: 0x2C }
  - { offset: 0x24237, size: 0x8, addend: 0x0, symName: __Z5printRSt6vectorI12merged_agentSaIS0_EE, symObjAddr: 0x135C, symBinAddr: 0x100003FD8, symSize: 0x254 }
  - { offset: 0x24323, size: 0x8, addend: 0x0, symName: __Z4costRKSt3mapIxSt3setIxSt4lessIxESaIxEES2_SaISt4pairIKxS4_EEE, symObjAddr: 0x12B4, symBinAddr: 0x100003F30, symSize: 0xA8 }
  - { offset: 0x243D3, size: 0x8, addend: 0x0, symName: __Z8compressRSt6vectorI12merged_agentSaIS0_EExRS_IxSaIxEEx, symObjAddr: 0x8D8, symBinAddr: 0x100003554, symSize: 0x9DC }
  - { offset: 0x2466B, size: 0x8, addend: 0x0, symName: __ZNSt6vectorI12merged_agentSaIS0_EEC1EOS2_, symObjAddr: 0x8B0, symBinAddr: 0x10000352C, symSize: 0x28 }
  - { offset: 0x246B9, size: 0x8, addend: 0x0, symName: __ZNSt12_Vector_baseI12merged_agentSaIS0_EEC2EOS2_, symObjAddr: 0x888, symBinAddr: 0x100003504, symSize: 0x28 }
  - { offset: 0x246E8, size: 0x8, addend: 0x0, symName: __ZNSt3setIxSt4lessIxESaIxEEaSERKS3_, symObjAddr: 0x860, symBinAddr: 0x1000034DC, symSize: 0x28 }
  - { offset: 0x24742, size: 0x8, addend: 0x0, symName: __ZN12merged_agentD1Ev, symObjAddr: 0x830, symBinAddr: 0x1000034AC, symSize: 0x30 }
  - { offset: 0x24785, size: 0x8, addend: 0x0, symName: __ZN12merged_agentC1Ev, symObjAddr: 0x800, symBinAddr: 0x10000347C, symSize: 0x30 }
  - { offset: 0x247C5, size: 0x8, addend: 0x0, symName: __ZNSt3setIxSt4lessIxESaIxEEC1Ev, symObjAddr: 0x7E0, symBinAddr: 0x10000345C, symSize: 0x20 }
  - { offset: 0x24805, size: 0x8, addend: 0x0, symName: __ZNSt8_Rb_treeIxxSt9_IdentityIxESt4lessIxESaIxEEC1Ev, symObjAddr: 0x7C0, symBinAddr: 0x10000343C, symSize: 0x20 }
  - { offset: 0x24853, size: 0x8, addend: 0x0, symName: __ZNSt8_Rb_treeIxxSt9_IdentityIxESt4lessIxESaIxEE13_Rb_tree_implIS3_Lb1EED1Ev, symObjAddr: 0x794, symBinAddr: 0x100003410, symSize: 0x2C }
  - { offset: 0x248B7, size: 0x8, addend: 0x0, symName: __ZNSt6vectorIxSaIxEEC1Ev, symObjAddr: 0x774, symBinAddr: 0x1000033F0, symSize: 0x20 }
  - { offset: 0x248F7, size: 0x8, addend: 0x0, symName: __ZNSt12_Vector_baseIxSaIxEEC2Ev, symObjAddr: 0x754, symBinAddr: 0x1000033D0, symSize: 0x20 }
  - { offset: 0x24944, size: 0x8, addend: 0x0, symName: __ZNSt12_Vector_baseIxSaIxEE12_Vector_implD1Ev, symObjAddr: 0x728, symBinAddr: 0x1000033A4, symSize: 0x2C }
  - { offset: 0x249A7, size: 0x8, addend: 0x0, symName: __ZNSt6vectorI12merged_agentSaIS0_EEC1Ev, symObjAddr: 0x708, symBinAddr: 0x100003384, symSize: 0x20 }
  - { offset: 0x249E7, size: 0x8, addend: 0x0, symName: __ZNSt12_Vector_baseI12merged_agentSaIS0_EEC2Ev, symObjAddr: 0x6E8, symBinAddr: 0x100003364, symSize: 0x20 }
  - { offset: 0x24A34, size: 0x8, addend: 0x0, symName: __ZNSt12_Vector_baseI12merged_agentSaIS0_EE12_Vector_implD1Ev, symObjAddr: 0x6BC, symBinAddr: 0x100003338, symSize: 0x2C }
  - { offset: 0x24AA1, size: 0x8, addend: 0x0, symName: __ZNSt3setIxSt4lessIxESaIxEED1Ev, symObjAddr: 0x69C, symBinAddr: 0x100003318, symSize: 0x20 }
  - { offset: 0x24AE6, size: 0x8, addend: 0x0, symName: __ZNSt3setIxSt4lessIxESaIxEEC1ERKS3_, symObjAddr: 0x674, symBinAddr: 0x1000032F0, symSize: 0x28 }
  - { offset: 0x24B2F, size: 0x8, addend: 0x0, symName: __ZNSt6vectorI11merged_pairSaIS0_EEC1Ev, symObjAddr: 0x654, symBinAddr: 0x1000032D0, symSize: 0x20 }
  - { offset: 0x24B6F, size: 0x8, addend: 0x0, symName: __ZNSt12_Vector_baseI11merged_pairSaIS0_EEC2Ev, symObjAddr: 0x634, symBinAddr: 0x1000032B0, symSize: 0x20 }
  - { offset: 0x24BBC, size: 0x8, addend: 0x0, symName: __ZNSt12_Vector_baseI11merged_pairSaIS0_EE12_Vector_implD1Ev, symObjAddr: 0x608, symBinAddr: 0x100003284, symSize: 0x2C }
  - { offset: 0x24C0C, size: 0x8, addend: 0x0, symName: __Z6reduceRKSt3setIxSt4lessIxESaIxEES5_RKSt6vectorIxS2_E, symObjAddr: 0x52C, symBinAddr: 0x1000031A8, symSize: 0xDC }
  - { offset: 0x24CBA, size: 0x8, addend: 0x0, symName: __Z6commonRKSt3setIxSt4lessIxESaIxEES5_, symObjAddr: 0x474, symBinAddr: 0x1000030F0, symSize: 0xB8 }
  - { offset: 0x24D58, size: 0x8, addend: 0x0, symName: __Z13compress_cmp2RK11merged_pairS1_, symObjAddr: 0x40C, symBinAddr: 0x100003088, symSize: 0x68 }
  - { offset: 0x24D9A, size: 0x8, addend: 0x0, symName: __Z13compress_cmp1RK11merged_pairS1_, symObjAddr: 0x3A4, symBinAddr: 0x100003020, symSize: 0x68 }
  - { offset: 0x24DDC, size: 0x8, addend: 0x0, symName: __Z4cmp2RK5agentS1_, symObjAddr: 0x374, symBinAddr: 0x100002FF0, symSize: 0x30 }
  - { offset: 0x24E1E, size: 0x8, addend: 0x0, symName: __Z3cmpRK5agentS1_, symObjAddr: 0x344, symBinAddr: 0x100002FC0, symSize: 0x30 }
  - { offset: 0x24E59, size: 0x8, addend: 0x0, symName: __ZNSt15_Rb_tree_header8_M_resetEv, symObjAddr: 0x308, symBinAddr: 0x100002F84, symSize: 0x3C }
  - { offset: 0x24E83, size: 0x8, addend: 0x0, symName: __ZNSt15_Rb_tree_header12_M_move_dataERS_, symObjAddr: 0x284, symBinAddr: 0x100002F00, symSize: 0x84 }
  - { offset: 0x24EE3, size: 0x8, addend: 0x0, symName: __ZNSt15_Rb_tree_headerC2EOS_, symObjAddr: 0x238, symBinAddr: 0x100002EB4, symSize: 0x4C }
  - { offset: 0x24F2C, size: 0x8, addend: 0x0, symName: __ZNSt15_Rb_tree_headerC2Ev, symObjAddr: 0x210, symBinAddr: 0x100002E8C, symSize: 0x28 }
  - { offset: 0x24F4D, size: 0x8, addend: 0x0, symName: __ZNSt18_Rb_tree_node_base10_S_maximumEPS_, symObjAddr: 0x1DC, symBinAddr: 0x100002E58, symSize: 0x34 }
  - { offset: 0x24F74, size: 0x8, addend: 0x0, symName: __ZNSt18_Rb_tree_node_base10_S_minimumEPS_, symObjAddr: 0x1A8, symBinAddr: 0x100002E24, symSize: 0x34 }
  - { offset: 0x24F9B, size: 0x8, addend: 0x0, symName: __ZSt17__size_to_integerm, symObjAddr: 0x194, symBinAddr: 0x100002E10, symSize: 0x14 }
  - { offset: 0x24FC3, size: 0x8, addend: 0x0, symName: __ZNSt11char_traitsIcE6lengthEPKc, symObjAddr: 0x158, symBinAddr: 0x100002DD4, symSize: 0x3C }
  - { offset: 0x25005, size: 0x8, addend: 0x0, symName: __ZNSt11char_traitsIcE7compareEPKcS2_m, symObjAddr: 0x68, symBinAddr: 0x100002CE4, symSize: 0xF0 }
  - { offset: 0x2508B, size: 0x8, addend: 0x0, symName: __ZNSt11char_traitsIcE2ltERKcS2_, symObjAddr: 0x30, symBinAddr: 0x100002CAC, symSize: 0x38 }
  - { offset: 0x250CB, size: 0x8, addend: 0x0, symName: __ZdlPvS_, symObjAddr: 0x18, symBinAddr: 0x100002C94, symSize: 0x18 }
  - { offset: 0x25101, size: 0x8, addend: 0x0, symName: __ZnwmPv, symObjAddr: 0x0, symBinAddr: 0x100002C7C, symSize: 0x18 }
...
