---
triple:          'arm64-apple-darwin'
binary-path:     '/Users/heng-ancheng/Desktop/2024-algorithm-intro/Algorithm_FP_2024/main'
relocations:
  - { offset: 0x3F, size: 0x8, addend: 0x0, symName: _agents, symObjAddr: 0x7B2D8, symBinAddr: 0x100018008, symSize: 0x0 }
  - { offset: 0xA808, size: 0x8, addend: 0x0, symName: __ZNSt3__17advanceB8ne180100IPillvEEvRT_T0_, symObjAddr: 0x559C, symBinAddr: 0x100007C9C, symSize: 0x38 }
  - { offset: 0xA873, size: 0x8, addend: 0x0, symName: __ZNSt3__111__sift_downB8ne180100INS_17_ClassicAlgPolicyERPFbRK5agentS4_EPS2_EEvT1_OT0_NS_15iterator_traitsIS9_E15difference_typeES9_, symObjAddr: 0x3A2C, symBinAddr: 0x10000612C, symSize: 0x288 }
  - { offset: 0xA920, size: 0x8, addend: 0x0, symName: __ZNSt3__117__floyd_sift_downB8ne180100INS_17_ClassicAlgPolicyERPFbRK5agentS4_EPS2_EET1_S9_OT0_NS_15iterator_traitsIS9_E15difference_typeE, symObjAddr: 0x5B4C, symBinAddr: 0x10000824C, symSize: 0x10C }
  - { offset: 0xA9B8, size: 0x8, addend: 0x0, symName: __ZNSt3__111__introsortINS_17_ClassicAlgPolicyERPFbRK5agentS4_EPS2_Lb0EEEvT1_S9_T0_NS_15iterator_traitsIS9_E15difference_typeEb, symObjAddr: 0x5EF0, symBinAddr: 0x1000085F0, symSize: 0x480 }
  - { offset: 0xAAE3, size: 0x8, addend: 0x0, symName: __ZNSt3__126__insertion_sort_unguardedB8ne180100INS_17_ClassicAlgPolicyERPFbRK5agentS4_EPS2_EEvT1_S9_T0_, symObjAddr: 0x6618, symBinAddr: 0x100008D18, symSize: 0x178 }
  - { offset: 0xABBB, size: 0x8, addend: 0x0, symName: __ZNSt3__131__partition_with_equals_on_leftB8ne180100INS_17_ClassicAlgPolicyEP5agentRPFbRKS2_S5_EEET0_S9_S9_T1_, symObjAddr: 0x69B0, symBinAddr: 0x1000090B0, symSize: 0x2C0 }
  - { offset: 0xAC77, size: 0x8, addend: 0x0, symName: __ZNSt3__118__bitset_partitionB8ne180100INS_17_ClassicAlgPolicyEP5agentRPFbRKS2_S5_EEENS_4pairIT0_bEESA_SA_T1_, symObjAddr: 0x6C70, symBinAddr: 0x100009370, symSize: 0x3D0 }
  - { offset: 0xAD74, size: 0x8, addend: 0x0, symName: __ZNSt3__124__swap_bitmap_pos_withinB8ne180100INS_17_ClassicAlgPolicyEP5agentEEvRT0_S5_RyS6_, symObjAddr: 0x7DB4, symBinAddr: 0x10000A4B4, symSize: 0x1E8 }
  - { offset: 0xAE41, size: 0x8, addend: 0x0, symName: __ZNSt3__132__partition_with_equals_on_rightB8ne180100INS_17_ClassicAlgPolicyEP5agentRPFbRKS2_S5_EEENS_4pairIT0_bEESA_SA_T1_, symObjAddr: 0x7040, symBinAddr: 0x100009740, symSize: 0x2C8 }
  - { offset: 0xAF0D, size: 0x8, addend: 0x0, symName: __ZNSt3__127__insertion_sort_incompleteB8ne180100INS_17_ClassicAlgPolicyERPFbRK5agentS4_EPS2_EEbT1_S9_T0_, symObjAddr: 0x7308, symBinAddr: 0x100009A08, symSize: 0x388 }
  - { offset: 0xAFF2, size: 0x8, addend: 0x0, symName: __ZNSt3__124__put_character_sequenceB8ne180100IcNS_11char_traitsIcEEEERNS_13basic_ostreamIT_T0_EES7_PKS4_m, symObjAddr: 0x82A0, symBinAddr: 0x10000A9A0, symSize: 0x1F4 }
  - { offset: 0xC6B3, size: 0x8, addend: 0x0, symName: __ZNSt3__17advanceB8ne180100INS_21__tree_const_iteratorINS_12__value_typeIiiEEPNS_11__tree_nodeIS3_PvEElEEllvEEvRT_T0_, symObjAddr: 0xEEE8, symBinAddr: 0x1000115E8, symSize: 0x38 }
  - { offset: 0xCE24, size: 0x8, addend: 0x0, symName: __ZNSt3__14sortB8ne180100INS_11__wrap_iterIP5agentEEPFbRKS2_S6_EEEvT_S9_T0_, symObjAddr: 0x3FC, symBinAddr: 0x100002AFC, symSize: 0x48 }
  - { offset: 0xD692, size: 0x8, addend: 0x0, symName: __ZNSt3__1lsB8ne180100INS_11char_traitsIcEEEERNS_13basic_ostreamIcT_EES6_PKc, symObjAddr: 0x640, symBinAddr: 0x100002D40, symSize: 0x48 }
  - { offset: 0xD6D8, size: 0x8, addend: 0x0, symName: __ZNSt3__1lsB8ne180100INS_11char_traitsIcEEEERNS_13basic_ostreamIcT_EES6_c, symObjAddr: 0x688, symBinAddr: 0x100002D88, symSize: 0x34 }
  - { offset: 0xD71E, size: 0x8, addend: 0x0, symName: __ZNSt3__14endlB8ne180100IcNS_11char_traitsIcEEEERNS_13basic_ostreamIT_T0_EES7_, symObjAddr: 0x6E8, symBinAddr: 0x100002DE8, symSize: 0x58 }
  - { offset: 0xD769, size: 0x8, addend: 0x0, symName: __ZNSt3__13maxB8ne180100IiEERKT_S3_S3_, symObjAddr: 0x1184, symBinAddr: 0x100003884, symSize: 0x2C }
  - { offset: 0xDEB5, size: 0x8, addend: 0x0, symName: __ZNSt3__1rsB8ne180100IcNS_11char_traitsIcEENS_9allocatorIcEEEERNS_13basic_istreamIT_T0_EES9_RNS_12basic_stringIS6_S7_T1_EE, symObjAddr: 0x17EC, symBinAddr: 0x100003EEC, symSize: 0x314 }
  - { offset: 0xDF82, size: 0x8, addend: 0x0, symName: __ZNSt3__1eqB8ne180100IcNS_11char_traitsIcEENS_9allocatorIcEEEEbRKNS_12basic_stringIT_T0_T1_EEPKS6_, symObjAddr: 0x1BE8, symBinAddr: 0x1000042E8, symSize: 0xC0 }
  - { offset: 0xDFF4, size: 0x8, addend: 0x0, symName: __ZNSt3__112__to_addressB8ne180100I5agentEEPT_S3_, symObjAddr: 0x2530, symBinAddr: 0x100004C30, symSize: 0x14 }
  - { offset: 0xE029, size: 0x8, addend: 0x0, symName: __ZNSt3__130__libcpp_is_constant_evaluatedB8ne180100Ev, symObjAddr: 0x25E0, symBinAddr: 0x100004CE0, symSize: 0xC }
  - { offset: 0xE046, size: 0x8, addend: 0x0, symName: __ZNSt3__119__libcpp_deallocateB8ne180100EPvmm, symObjAddr: 0x25EC, symBinAddr: 0x100004CEC, symSize: 0x30 }
  - { offset: 0xE08E, size: 0x8, addend: 0x0, symName: __ZNSt3__127__do_deallocate_handle_sizeB8ne180100IJEEEvPvmDpT_, symObjAddr: 0x261C, symBinAddr: 0x100004D1C, symSize: 0x28 }
  - { offset: 0xE0CC, size: 0x8, addend: 0x0, symName: __ZNSt3__124__libcpp_operator_deleteB8ne180100IJPvEEEvDpT_, symObjAddr: 0x2644, symBinAddr: 0x100004D44, symSize: 0x24 }
  - { offset: 0xE101, size: 0x8, addend: 0x0, symName: __ZNSt3__112__to_addressB8ne180100IiEEPT_S2_, symObjAddr: 0x2B08, symBinAddr: 0x100005208, symSize: 0x14 }
  - { offset: 0xE136, size: 0x8, addend: 0x0, symName: __ZNSt3__112__to_addressB8ne180100INS_3mapIiiNS_4lessIiEENS_9allocatorINS_4pairIKiiEEEEEEEEPT_SB_, symObjAddr: 0x3040, symBinAddr: 0x100005740, symSize: 0x14 }
  - { offset: 0xE16B, size: 0x8, addend: 0x0, symName: __ZNSt3__112__destroy_atB8ne180100INS_4pairIKiiEELi0EEEvPT_, symObjAddr: 0x3300, symBinAddr: 0x100005A00, symSize: 0x10 }
  - { offset: 0xE1D5, size: 0x8, addend: 0x0, symName: __ZNSt3__111__sort_implB8ne180100INS_17_ClassicAlgPolicyENS_11__wrap_iterIP5agentEEPFbRKS3_S7_EEEvT0_SA_RT1_, symObjAddr: 0x35A0, symBinAddr: 0x100005CA0, symSize: 0x108 }
  - { offset: 0xE238, size: 0x8, addend: 0x0, symName: __ZNSt3__123__debug_randomize_rangeB8ne180100INS_17_ClassicAlgPolicyENS_11__wrap_iterIP5agentEES5_EEvT0_T1_, symObjAddr: 0x36A8, symBinAddr: 0x100005DA8, symSize: 0x14 }
  - { offset: 0xE289, size: 0x8, addend: 0x0, symName: __ZNSt3__114__partial_sortB8ne180100INS_17_ClassicAlgPolicyEPFbRK5agentS4_EPS2_S7_EET1_S8_S8_T2_RT0_, symObjAddr: 0x36BC, symBinAddr: 0x100005DBC, symSize: 0x94 }
  - { offset: 0xE311, size: 0x8, addend: 0x0, symName: __ZNSt3__113__unwrap_iterB8ne180100INS_11__wrap_iterIP5agentEENS_18__unwrap_iter_implIS4_Lb1EEELi0EEEDTclsrT0_8__unwrapclsr3stdE7declvalIT_EEEES8_, symObjAddr: 0x3750, symBinAddr: 0x100005E50, symSize: 0x2C }
  - { offset: 0xE355, size: 0x8, addend: 0x0, symName: __ZNSt3__115__sort_dispatchB8ne180100INS_17_ClassicAlgPolicyEP5agentPFbRKS2_S5_EEEvT0_S8_RT1_, symObjAddr: 0x377C, symBinAddr: 0x100005E7C, symSize: 0x64 }
  - { offset: 0xE3D3, size: 0x8, addend: 0x0, symName: __ZNSt3__135__check_strict_weak_ordering_sortedB8ne180100IP5agentPFbRKS1_S4_EEEvT_S7_RT0_, symObjAddr: 0x37E0, symBinAddr: 0x100005EE0, symSize: 0x18 }
  - { offset: 0xE568, size: 0x8, addend: 0x0, symName: __ZNSt3__123__debug_randomize_rangeB8ne180100INS_17_ClassicAlgPolicyEP5agentS3_EEvT0_T1_, symObjAddr: 0x3810, symBinAddr: 0x100005F10, symSize: 0x14 }
  - { offset: 0xE5B9, size: 0x8, addend: 0x0, symName: __ZNSt3__119__partial_sort_implB8ne180100INS_17_ClassicAlgPolicyERPFbRK5agentS4_EPS2_S8_EET1_S9_S9_T2_OT0_, symObjAddr: 0x3824, symBinAddr: 0x100005F24, symSize: 0x114 }
  - { offset: 0xE64F, size: 0x8, addend: 0x0, symName: __ZNSt3__111__make_heapB8ne180100INS_17_ClassicAlgPolicyERPFbRK5agentS4_EPS2_EEvT1_S9_OT0_, symObjAddr: 0x3938, symBinAddr: 0x100006038, symSize: 0xC0 }
  - { offset: 0xE6F1, size: 0x8, addend: 0x0, symName: __ZNSt3__111__sort_heapB8ne180100INS_17_ClassicAlgPolicyERPFbRK5agentS4_EPS2_EEvT1_S9_OT0_, symObjAddr: 0x3CB4, symBinAddr: 0x1000063B4, symSize: 0xA8 }
  - { offset: 0xE793, size: 0x8, addend: 0x0, symName: __ZNSt3__19iter_swapB8ne180100IP5agentS2_EEvT_T0_, symObjAddr: 0x3D5C, symBinAddr: 0x10000645C, symSize: 0x2C }
  - { offset: 0xE7DB, size: 0x8, addend: 0x0, symName: __ZNSt3__14swapB8ne180100I5agentEEvRT_S3_, symObjAddr: 0x3D88, symBinAddr: 0x100006488, symSize: 0x7C }
  - { offset: 0xE82C, size: 0x8, addend: 0x0, symName: __ZNSt3__122__make_exception_guardB8ne180100INS_6vectorIiNS_9allocatorIiEEE16__destroy_vectorEEENS_28__exception_guard_exceptionsIT_EES7_, symObjAddr: 0x4168, symBinAddr: 0x100006868, symSize: 0x40 }
  - { offset: 0xE861, size: 0x8, addend: 0x0, symName: __ZNSt3__119__allocate_at_leastB8ne180100INS_9allocatorIiEEEENS_19__allocation_resultINS_16allocator_traitsIT_E7pointerEEERS5_m, symObjAddr: 0x4418, symBinAddr: 0x100006B18, symSize: 0x40 }
  - { offset: 0xE8A4, size: 0x8, addend: 0x0, symName: __ZNSt3__13minB8ne180100ImEERKT_S3_S3_, symObjAddr: 0x4494, symBinAddr: 0x100006B94, symSize: 0x2C }
  - { offset: 0xEAE8, size: 0x8, addend: 0x0, symName: __ZNSt3__13minB8ne180100ImNS_6__lessIvvEEEERKT_S5_S5_T0_, symObjAddr: 0x44F8, symBinAddr: 0x100006BF8, symSize: 0x54 }
  - { offset: 0xEBB8, size: 0x8, addend: 0x0, symName: __ZNSt3__120__throw_length_errorB8ne180100EPKc, symObjAddr: 0x459C, symBinAddr: 0x100006C9C, symSize: 0x64 }
  - { offset: 0xEBE0, size: 0x8, addend: 0x0, symName: __ZNSt3__117__libcpp_allocateB8ne180100Emm, symObjAddr: 0x4730, symBinAddr: 0x100006E30, symSize: 0x28 }
  - { offset: 0xEC1D, size: 0x8, addend: 0x0, symName: __ZNSt3__121__libcpp_operator_newB8ne180100IJmEEEPvDpT_, symObjAddr: 0x4758, symBinAddr: 0x100006E58, symSize: 0x24 }
  - { offset: 0xEC56, size: 0x8, addend: 0x0, symName: __ZNSt3__130__uninitialized_allocator_copyB8ne180100INS_9allocatorIiEEPiS3_S3_EET2_RT_T0_T1_S4_, symObjAddr: 0x47F0, symBinAddr: 0x100006EF0, symSize: 0x80 }
  - { offset: 0xECF3, size: 0x8, addend: 0x0, symName: __ZNSt3__114__unwrap_rangeB8ne180100IPiS1_EENS_4pairIT0_S3_EET_S5_, symObjAddr: 0x48E0, symBinAddr: 0x100006FE0, symSize: 0x60 }
  - { offset: 0xED3F, size: 0x8, addend: 0x0, symName: __ZNSt3__135__uninitialized_allocator_copy_implB8ne180100INS_9allocatorIiEEPiS3_S3_EET2_RT_T0_T1_S4_, symObjAddr: 0x4940, symBinAddr: 0x100007040, symSize: 0xFC }
  - { offset: 0xEDDD, size: 0x8, addend: 0x0, symName: __ZNSt3__113__unwrap_iterB8ne180100IPiNS_18__unwrap_iter_implIS1_Lb1EEELi0EEEDTclsrT0_8__unwrapclsr3stdE7declvalIT_EEEES5_, symObjAddr: 0x4A3C, symBinAddr: 0x10000713C, symSize: 0x24 }
  - { offset: 0xEE21, size: 0x8, addend: 0x0, symName: __ZNSt3__113__rewrap_iterB8ne180100IPiS1_NS_18__unwrap_iter_implIS1_Lb1EEEEET_S4_T0_, symObjAddr: 0x4A60, symBinAddr: 0x100007160, symSize: 0x50 }
  - { offset: 0xEE76, size: 0x8, addend: 0x0, symName: __ZNSt3__19make_pairB8ne180100IPiS1_EENS_4pairINS_18__unwrap_ref_decayIT_E4typeENS3_IT0_E4typeEEEOS4_OS7_, symObjAddr: 0x4AB0, symBinAddr: 0x1000071B0, symSize: 0x38 }
  - { offset: 0xEF72, size: 0x8, addend: 0x0, symName: __ZNSt3__122__make_exception_guardB8ne180100INS_29_AllocatorDestroyRangeReverseINS_9allocatorIiEEPiEEEENS_28__exception_guard_exceptionsIT_EES7_, symObjAddr: 0x4B58, symBinAddr: 0x100007258, symSize: 0x4C }
  - { offset: 0xEFA8, size: 0x8, addend: 0x0, symName: __ZNSt3__119__allocator_destroyB8ne180100INS_9allocatorIiEENS_16reverse_iteratorIPiEES5_EEvRT_T0_T1_, symObjAddr: 0x4DD8, symBinAddr: 0x1000074D8, symSize: 0x70 }
  - { offset: 0xF00B, size: 0x8, addend: 0x0, symName: __ZNSt3__1neB8ne180100IPiS1_EEbRKNS_16reverse_iteratorIT_EERKNS2_IT0_EE, symObjAddr: 0x4E7C, symBinAddr: 0x10000757C, symSize: 0x48 }
  - { offset: 0xF057, size: 0x8, addend: 0x0, symName: __ZNSt3__112__to_addressB8ne180100INS_16reverse_iteratorIPiEEvEEu7__decayIDTclsr19__to_address_helperIT_EE6__callclsr3stdE7declvalIRKS4_EEEEES6_, symObjAddr: 0x4EC4, symBinAddr: 0x1000075C4, symSize: 0x24 }
  - { offset: 0xF109, size: 0x8, addend: 0x0, symName: __ZNSt3__18distanceB8ne180100IPiEENS_15iterator_traitsIT_E15difference_typeES3_S3_, symObjAddr: 0x5324, symBinAddr: 0x100007A24, symSize: 0x2C }
  - { offset: 0xF14C, size: 0x8, addend: 0x0, symName: __ZNSt3__14nextB8ne180100IPiLi0EEET_S2_NS_15iterator_traitsIS2_E15difference_typeE, symObjAddr: 0x5350, symBinAddr: 0x100007A50, symSize: 0x34 }
  - { offset: 0xF195, size: 0x8, addend: 0x0, symName: __ZNSt3__14copyB8ne180100IPiS1_EET0_T_S3_S2_, symObjAddr: 0x5384, symBinAddr: 0x100007A84, symSize: 0x40 }
  - { offset: 0xF1EF, size: 0x8, addend: 0x0, symName: __ZNSt3__16__copyB8ne180100INS_17_ClassicAlgPolicyEPiS2_S2_EENS_4pairIT0_T2_EES4_T1_S5_, symObjAddr: 0x53C4, symBinAddr: 0x100007AC4, symSize: 0x44 }
  - { offset: 0xF25B, size: 0x8, addend: 0x0, symName: __ZNSt3__121__convert_to_integralB8ne180100El, symObjAddr: 0x55D4, symBinAddr: 0x100007CD4, symSize: 0x14 }
  - { offset: 0xF287, size: 0x8, addend: 0x0, symName: __ZNSt3__19__advanceB8ne180100IPiEEvRT_NS_15iterator_traitsIS2_E15difference_typeENS_26random_access_iterator_tagE, symObjAddr: 0x55E8, symBinAddr: 0x100007CE8, symSize: 0x28 }
  - { offset: 0xF2D0, size: 0x8, addend: 0x0, symName: __ZNSt3__123__dispatch_copy_or_moveB8ne180100INS_17_ClassicAlgPolicyENS_11__copy_loopIS1_EENS_14__copy_trivialEPiS5_S5_EENS_4pairIT2_T4_EES7_T3_S8_, symObjAddr: 0x5610, symBinAddr: 0x100007D10, symSize: 0x44 }
  - { offset: 0xF34E, size: 0x8, addend: 0x0, symName: __ZNSt3__121__unwrap_and_dispatchB8ne180100INS_10__overloadINS_11__copy_loopINS_17_ClassicAlgPolicyEEENS_14__copy_trivialEEEPiS7_S7_Li0EEENS_4pairIT0_T2_EES9_T1_SA_, symObjAddr: 0x5654, symBinAddr: 0x100007D54, symSize: 0xB4 }
  - { offset: 0xF422, size: 0x8, addend: 0x0, symName: __ZNSt3__114__rewrap_rangeB8ne180100IPiS1_EET_S2_T0_, symObjAddr: 0x5750, symBinAddr: 0x100007E50, symSize: 0x2C }
  - { offset: 0xF46E, size: 0x8, addend: 0x0, symName: __ZNSt3__119__copy_trivial_implB8ne180100IiiEENS_4pairIPT_PT0_EES3_S3_S5_, symObjAddr: 0x577C, symBinAddr: 0x100007E7C, symSize: 0x80 }
  - { offset: 0xF4D6, size: 0x8, addend: 0x0, symName: __ZNSt3__119__constexpr_memmoveB8ne180100IiiLi0EEEPT_S2_PT0_NS_15__element_countE, symObjAddr: 0x57FC, symBinAddr: 0x100007EFC, symSize: 0xA0 }
  - { offset: 0xF544, size: 0x8, addend: 0x0, symName: __ZNSt3__19make_pairB8ne180100IRPiS1_EENS_4pairINS_18__unwrap_ref_decayIT_E4typeENS4_IT0_E4typeEEEOS5_OS8_, symObjAddr: 0x589C, symBinAddr: 0x100007F9C, symSize: 0x38 }
  - { offset: 0xF593, size: 0x8, addend: 0x0, symName: __ZNSt3__13maxB8ne180100ImEERKT_S3_S3_, symObjAddr: 0x592C, symBinAddr: 0x10000802C, symSize: 0x2C }
  - { offset: 0xF5D6, size: 0x8, addend: 0x0, symName: __ZNSt3__13maxB8ne180100ImNS_6__lessIvvEEEERKT_S5_S5_T0_, symObjAddr: 0x5958, symBinAddr: 0x100008058, symSize: 0x54 }
  - { offset: 0xF630, size: 0x8, addend: 0x0, symName: __ZNSt3__110__distanceB8ne180100IPiEENS_15iterator_traitsIT_E15difference_typeES3_S3_NS_26random_access_iterator_tagE, symObjAddr: 0x59AC, symBinAddr: 0x1000080AC, symSize: 0x28 }
  - { offset: 0xF688, size: 0x8, addend: 0x0, symName: __ZNSt3__110__pop_heapB8ne180100INS_17_ClassicAlgPolicyEPFbRK5agentS4_EPS2_EEvT1_S8_RT0_NS_15iterator_traitsIS8_E15difference_typeE, symObjAddr: 0x5A00, symBinAddr: 0x100008100, symSize: 0x14C }
  - { offset: 0xF730, size: 0x8, addend: 0x0, symName: __ZNSt3__19__sift_upB8ne180100INS_17_ClassicAlgPolicyERPFbRK5agentS4_EPS2_EEvT1_S9_OT0_NS_15iterator_traitsIS9_E15difference_typeE, symObjAddr: 0x5C58, symBinAddr: 0x100008358, symSize: 0x184 }
  - { offset: 0xF823, size: 0x8, addend: 0x0, symName: __ZNSt3__112__to_addressB8ne180100INS_11__wrap_iterIP5agentEEvEEu7__decayIDTclsr19__to_address_helperIT_EE6__callclsr3stdE7declvalIRKS5_EEEEES7_, symObjAddr: 0x5E04, symBinAddr: 0x100008504, symSize: 0x24 }
  - { offset: 0xF8FE, size: 0x8, addend: 0x0, symName: __ZNSt3__17__log2iB8ne180100IlEET_S1_, symObjAddr: 0x5E9C, symBinAddr: 0x10000859C, symSize: 0x54 }
  - { offset: 0xF935, size: 0x8, addend: 0x0, symName: __ZNSt3__112__libcpp_clzB8ne180100Em, symObjAddr: 0x6388, symBinAddr: 0x100008A88, symSize: 0x1C }
  - { offset: 0xF961, size: 0x8, addend: 0x0, symName: __ZNSt3__124__sort3_maybe_branchlessB8ne180100INS_17_ClassicAlgPolicyERPFbRK5agentS4_EPS2_Li0EEEvT1_S9_S9_T0_, symObjAddr: 0x63A4, symBinAddr: 0x100008AA4, symSize: 0x3C }
  - { offset: 0xF9D4, size: 0x8, addend: 0x0, symName: __ZNSt3__124__sort4_maybe_branchlessB8ne180100INS_17_ClassicAlgPolicyERPFbRK5agentS4_EPS2_Li0EEEvT1_S9_S9_S9_T0_, symObjAddr: 0x63E0, symBinAddr: 0x100008AE0, symSize: 0x44 }
  - { offset: 0xFA55, size: 0x8, addend: 0x0, symName: __ZNSt3__124__sort5_maybe_branchlessB8ne180100INS_17_ClassicAlgPolicyERPFbRK5agentS4_EPS2_Li0EEEvT1_S9_S9_S9_S9_T0_, symObjAddr: 0x6424, symBinAddr: 0x100008B24, symSize: 0x4C }
  - { offset: 0xFAEB, size: 0x8, addend: 0x0, symName: __ZNSt3__116__insertion_sortB8ne180100INS_17_ClassicAlgPolicyERPFbRK5agentS4_EPS2_EEvT1_S9_T0_, symObjAddr: 0x6470, symBinAddr: 0x100008B70, symSize: 0x1A8 }
  - { offset: 0xFBA2, size: 0x8, addend: 0x0, symName: __ZNSt3__114__partial_sortB8ne180100INS_17_ClassicAlgPolicyERPFbRK5agentS4_EPS2_S8_EET1_S9_S9_T2_RT0_, symObjAddr: 0x6790, symBinAddr: 0x100008E90, symSize: 0x94 }
  - { offset: 0xFC2A, size: 0x8, addend: 0x0, symName: __ZNSt3__17__sort3B8ne180100INS_17_ClassicAlgPolicyERPFbRK5agentS4_EPS2_EEjT1_S9_S9_T0_, symObjAddr: 0x6824, symBinAddr: 0x100008F24, symSize: 0x158 }
  - { offset: 0xFCA9, size: 0x8, addend: 0x0, symName: __ZNSt3__17__sort4B8ne180100INS_17_ClassicAlgPolicyERPFbRK5agentS4_EPS2_EEvT1_S9_S9_S9_T0_, symObjAddr: 0x76A8, symBinAddr: 0x100009DA8, symSize: 0xC4 }
  - { offset: 0xFD24, size: 0x8, addend: 0x0, symName: __ZNSt3__17__sort5B8ne180100INS_17_ClassicAlgPolicyERPFbRK5agentS4_EPS2_EEvT1_S9_S9_S9_S9_T0_, symObjAddr: 0x776C, symBinAddr: 0x100009E6C, symSize: 0xF8 }
  - { offset: 0xFDAD, size: 0x8, addend: 0x0, symName: __ZNSt3__122__populate_left_bitsetB8ne180100IRPFbRK5agentS3_EPS1_S1_EEvT0_T_RT1_Ry, symObjAddr: 0x7864, symBinAddr: 0x100009F64, symSize: 0xAC }
  - { offset: 0xFE68, size: 0x8, addend: 0x0, symName: __ZNSt3__123__populate_right_bitsetB8ne180100IRPFbRK5agentS3_EPS1_S1_EEvT0_T_RT1_Ry, symObjAddr: 0x7910, symBinAddr: 0x10000A010, symSize: 0xA8 }
  - { offset: 0xFF23, size: 0x8, addend: 0x0, symName: __ZNSt3__117__swap_bitmap_posB8ne180100INS_17_ClassicAlgPolicyEP5agentEEvT0_S4_RyS5_, symObjAddr: 0x79B8, symBinAddr: 0x10000A0B8, symSize: 0x104 }
  - { offset: 0xFFC4, size: 0x8, addend: 0x0, symName: __ZNSt3__133__bitset_partition_partial_blocksB8ne180100INS_17_ClassicAlgPolicyERPFbRK5agentS4_EPS2_S2_EEvRT1_SA_T0_RT2_RySE_, symObjAddr: 0x7ABC, symBinAddr: 0x10000A1BC, symSize: 0x2F8 }
  - { offset: 0x10145, size: 0x8, addend: 0x0, symName: __ZNSt3__19make_pairB8ne180100IRP5agentRbEENS_4pairINS_18__unwrap_ref_decayIT_E4typeENS6_IT0_E4typeEEEOS7_OSA_, symObjAddr: 0x7F9C, symBinAddr: 0x10000A69C, symSize: 0x38 }
  - { offset: 0x10194, size: 0x8, addend: 0x0, symName: __ZNSt3__112__libcpp_ctzB8ne180100Ey, symObjAddr: 0x7FD4, symBinAddr: 0x10000A6D4, symSize: 0x20 }
  - { offset: 0x101C0, size: 0x8, addend: 0x0, symName: __ZNSt3__113__libcpp_blsrB8ne180100Ey, symObjAddr: 0x7FF4, symBinAddr: 0x10000A6F4, symSize: 0x2C }
  - { offset: 0x101EC, size: 0x8, addend: 0x0, symName: __ZNSt3__112__libcpp_clzB8ne180100Ey, symObjAddr: 0x8054, symBinAddr: 0x10000A754, symSize: 0x1C }
  - { offset: 0x102C5, size: 0x8, addend: 0x0, symName: __ZNSt3__116__pad_and_outputB8ne180100IcNS_11char_traitsIcEEEENS_19ostreambuf_iteratorIT_T0_EES6_PKS4_S8_S8_RNS_8ios_baseES4_, symObjAddr: 0x84F8, symBinAddr: 0x10000ABF8, symSize: 0x248 }
  - { offset: 0x10394, size: 0x8, addend: 0x0, symName: __ZNSt3__112__to_addressB8ne180100IKcEEPT_S3_, symObjAddr: 0x8A3C, symBinAddr: 0x10000B13C, symSize: 0x14 }
  - { offset: 0x103FC, size: 0x8, addend: 0x0, symName: __ZNSt3__19use_facetB8ne180100INS_5ctypeIcEEEERKT_RKNS_6localeE, symObjAddr: 0x8D2C, symBinAddr: 0x10000B42C, symSize: 0x2C }
  - { offset: 0x107DA, size: 0x8, addend: 0x0, symName: __ZNSt3__118__constexpr_strlenB8ne180100EPKc, symObjAddr: 0x8D90, symBinAddr: 0x10000B490, symSize: 0x24 }
  - { offset: 0x10824, size: 0x8, addend: 0x0, symName: __ZNSt3__127__tree_balance_after_insertB8ne180100IPNS_16__tree_node_baseIPvEEEEvT_S5_, symObjAddr: 0x97D4, symBinAddr: 0x10000BED4, symSize: 0x340 }
  - { offset: 0x10898, size: 0x8, addend: 0x0, symName: __ZNSt3__120__tree_is_left_childB8ne180100IPNS_16__tree_node_baseIPvEEEEbT_, symObjAddr: 0x9B54, symBinAddr: 0x10000C254, symSize: 0x2C }
  - { offset: 0x108CD, size: 0x8, addend: 0x0, symName: __ZNSt3__118__tree_left_rotateB8ne180100IPNS_16__tree_node_baseIPvEEEEvT_, symObjAddr: 0x9B80, symBinAddr: 0x10000C280, symSize: 0xEC }
  - { offset: 0x1090C, size: 0x8, addend: 0x0, symName: __ZNSt3__119__tree_right_rotateB8ne180100IPNS_16__tree_node_baseIPvEEEEvT_, symObjAddr: 0x9C6C, symBinAddr: 0x10000C36C, symSize: 0xCC }
  - { offset: 0x1094E, size: 0x8, addend: 0x0, symName: __ZNSt3__112__destroy_atB8ne180100IiLi0EEEvPT_, symObjAddr: 0x9FA4, symBinAddr: 0x10000C6A4, symSize: 0x10 }
  - { offset: 0x10985, size: 0x8, addend: 0x0, symName: __ZNSt3__112__destroy_atB8ne180100IKiLi0EEEvPT_, symObjAddr: 0x9FB4, symBinAddr: 0x10000C6B4, symSize: 0x10 }
  - { offset: 0x109BC, size: 0x8, addend: 0x0, symName: __ZNSt3__13maxB8ne180100IiNS_6__lessIvvEEEERKT_S5_S5_T0_, symObjAddr: 0x9FC4, symBinAddr: 0x10000C6C4, symSize: 0x54 }
  - { offset: 0x10A16, size: 0x8, addend: 0x0, symName: __ZNSt3__142__uninitialized_allocator_move_if_noexceptB8ne180100INS_9allocatorIiEENS_16reverse_iteratorIPiEES5_ivEET1_RT_T0_S9_S6_, symObjAddr: 0xA5DC, symBinAddr: 0x10000CCDC, symSize: 0xE8 }
  - { offset: 0x10A93, size: 0x8, addend: 0x0, symName: __ZNSt3__14swapB8ne180100IPiEEvRT_S3_, symObjAddr: 0xA6C4, symBinAddr: 0x10000CDC4, symSize: 0x3C }
  - { offset: 0x10AE4, size: 0x8, addend: 0x0, symName: __ZNSt3__114__construct_atB8ne180100IiJiEPiEEPT_S3_DpOT0_, symObjAddr: 0xA700, symBinAddr: 0x10000CE00, symSize: 0x24 }
  - { offset: 0x10B37, size: 0x8, addend: 0x0, symName: __ZNSt3__14moveB8ne180100INS_16reverse_iteratorIPiEES3_EET0_T_S5_S4_, symObjAddr: 0xA724, symBinAddr: 0x10000CE24, symSize: 0x78 }
  - { offset: 0x10B91, size: 0x8, addend: 0x0, symName: __ZNSt3__16__moveB8ne180100INS_17_ClassicAlgPolicyENS_16reverse_iteratorIPiEES4_S4_EENS_4pairIT0_T2_EES6_T1_S7_, symObjAddr: 0xA79C, symBinAddr: 0x10000CE9C, symSize: 0x64 }
  - { offset: 0x10BFD, size: 0x8, addend: 0x0, symName: __ZNSt3__123__dispatch_copy_or_moveB8ne180100INS_17_ClassicAlgPolicyENS_11__move_loopIS1_EENS_14__move_trivialENS_16reverse_iteratorIPiEES7_S7_EENS_4pairIT2_T4_EES9_T3_SA_, symObjAddr: 0xA800, symBinAddr: 0x10000CF00, symSize: 0x64 }
  - { offset: 0x10C7B, size: 0x8, addend: 0x0, symName: __ZNSt3__121__unwrap_and_dispatchB8ne180100INS_10__overloadINS_11__move_loopINS_17_ClassicAlgPolicyEEENS_14__move_trivialEEENS_16reverse_iteratorIPiEES9_S9_Li0EEENS_4pairIT0_T2_EESB_T1_SC_, symObjAddr: 0xA864, symBinAddr: 0x10000CF64, symSize: 0x12C }
  - { offset: 0x10D0B, size: 0x8, addend: 0x0, symName: __ZNSt3__114__unwrap_rangeB8ne180100INS_16reverse_iteratorIPiEES3_EENS_4pairIT0_S5_EET_S7_, symObjAddr: 0xA990, symBinAddr: 0x10000D090, symSize: 0x84 }
  - { offset: 0x10E56, size: 0x8, addend: 0x0, symName: __ZNSt3__113__unwrap_iterB8ne180100INS_16reverse_iteratorIPiEENS_18__unwrap_iter_implIS3_Lb0EEELi0EEEDTclsrT0_8__unwrapclsr3stdE7declvalIT_EEEES7_, symObjAddr: 0xAAB4, symBinAddr: 0x10000D1B4, symSize: 0x44 }
  - { offset: 0x10E9A, size: 0x8, addend: 0x0, symName: __ZNSt3__19make_pairB8ne180100INS_16reverse_iteratorIPiEES3_EENS_4pairINS_18__unwrap_ref_decayIT_E4typeENS5_IT0_E4typeEEEOS6_OS9_, symObjAddr: 0xAAF8, symBinAddr: 0x10000D1F8, symSize: 0x38 }
  - { offset: 0x10EE9, size: 0x8, addend: 0x0, symName: __ZNSt3__114__rewrap_rangeB8ne180100INS_16reverse_iteratorIPiEES3_EET_S4_T0_, symObjAddr: 0xAB30, symBinAddr: 0x10000D230, symSize: 0x5C }
  - { offset: 0x10F35, size: 0x8, addend: 0x0, symName: __ZNSt3__113__rewrap_iterB8ne180100INS_16reverse_iteratorIPiEES3_NS_18__unwrap_iter_implIS3_Lb0EEEEET_S6_T0_, symObjAddr: 0xAB8C, symBinAddr: 0x10000D28C, symSize: 0x88 }
  - { offset: 0x11212, size: 0x8, addend: 0x0, symName: __ZNSt3__119__allocate_at_leastB8ne180100INS_9allocatorI5agentEEEENS_19__allocation_resultINS_16allocator_traitsIT_E7pointerEEERS6_m, symObjAddr: 0xBE9C, symBinAddr: 0x10000E59C, symSize: 0x40 }
  - { offset: 0x11255, size: 0x8, addend: 0x0, symName: __ZNSt3__142__uninitialized_allocator_move_if_noexceptB8ne180100INS_9allocatorI5agentEENS_16reverse_iteratorIPS2_EES6_S6_EET2_RT_T0_T1_S7_, symObjAddr: 0xC084, symBinAddr: 0x10000E784, symSize: 0x134 }
  - { offset: 0x112F5, size: 0x8, addend: 0x0, symName: __ZNSt3__14swapB8ne180100IP5agentEEvRT_S4_, symObjAddr: 0xC204, symBinAddr: 0x10000E904, symSize: 0x3C }
  - { offset: 0x11346, size: 0x8, addend: 0x0, symName: __ZNSt3__122__make_exception_guardB8ne180100INS_29_AllocatorDestroyRangeReverseINS_9allocatorI5agentEENS_16reverse_iteratorIPS3_EEEEEENS_28__exception_guard_exceptionsIT_EESA_, symObjAddr: 0xC254, symBinAddr: 0x10000E954, symSize: 0x4C }
  - { offset: 0x1137C, size: 0x8, addend: 0x0, symName: __ZNSt3__1neB8ne180100IP5agentS2_EEbRKNS_16reverse_iteratorIT_EERKNS3_IT0_EE, symObjAddr: 0xC2E4, symBinAddr: 0x10000E9E4, symSize: 0x48 }
  - { offset: 0x113C8, size: 0x8, addend: 0x0, symName: __ZNSt3__112__to_addressB8ne180100INS_16reverse_iteratorIP5agentEEvEEu7__decayIDTclsr19__to_address_helperIT_EE6__callclsr3stdE7declvalIRKS5_EEEEES7_, symObjAddr: 0xC32C, symBinAddr: 0x10000EA2C, symSize: 0x24 }
  - { offset: 0x11427, size: 0x8, addend: 0x0, symName: __ZNSt3__119__allocator_destroyB8ne180100INS_9allocatorI5agentEENS_16reverse_iteratorINS4_IPS2_EEEES7_EEvRT_T0_T1_, symObjAddr: 0xC5E8, symBinAddr: 0x10000ECE8, symSize: 0x70 }
  - { offset: 0x1148C, size: 0x8, addend: 0x0, symName: __ZNSt3__1neB8ne180100INS_16reverse_iteratorIP5agentEES4_EEbRKNS1_IT_EERKNS1_IT0_EE, symObjAddr: 0xC694, symBinAddr: 0x10000ED94, symSize: 0x60 }
  - { offset: 0x114D8, size: 0x8, addend: 0x0, symName: __ZNSt3__112__to_addressB8ne180100INS_16reverse_iteratorINS1_IP5agentEEEEvEEu7__decayIDTclsr19__to_address_helperIT_EE6__callclsr3stdE7declvalIRKS6_EEEEES8_, symObjAddr: 0xC6F4, symBinAddr: 0x10000EDF4, symSize: 0x24 }
  - { offset: 0x11537, size: 0x8, addend: 0x0, symName: __ZNSt3__119__allocate_at_leastB8ne180100INS_9allocatorINS_3mapIiiNS_4lessIiEENS1_INS_4pairIKiiEEEEEEEEEENS_19__allocation_resultINS_16allocator_traitsIT_E7pointerEEERSD_m, symObjAddr: 0xD8B8, symBinAddr: 0x10000FFB8, symSize: 0x40 }
  - { offset: 0x1157A, size: 0x8, addend: 0x0, symName: __ZNSt3__142__uninitialized_allocator_move_if_noexceptB8ne180100INS_9allocatorINS_3mapIiiNS_4lessIiEENS1_INS_4pairIKiiEEEEEEEENS_16reverse_iteratorIPS9_EESD_SD_EET2_RT_T0_T1_SE_, symObjAddr: 0xDB74, symBinAddr: 0x100010274, symSize: 0x134 }
  - { offset: 0x1161A, size: 0x8, addend: 0x0, symName: __ZNSt3__14swapB8ne180100IPNS_3mapIiiNS_4lessIiEENS_9allocatorINS_4pairIKiiEEEEEEEEvRT_SC_, symObjAddr: 0xDCF4, symBinAddr: 0x1000103F4, symSize: 0x3C }
  - { offset: 0x1166B, size: 0x8, addend: 0x0, symName: __ZNSt3__122__make_exception_guardB8ne180100INS_29_AllocatorDestroyRangeReverseINS_9allocatorINS_3mapIiiNS_4lessIiEENS2_INS_4pairIKiiEEEEEEEENS_16reverse_iteratorIPSA_EEEEEENS_28__exception_guard_exceptionsIT_EESH_, symObjAddr: 0xDD44, symBinAddr: 0x100010444, symSize: 0x4C }
  - { offset: 0x116A1, size: 0x8, addend: 0x0, symName: __ZNSt3__1neB8ne180100IPNS_3mapIiiNS_4lessIiEENS_9allocatorINS_4pairIKiiEEEEEESA_EEbRKNS_16reverse_iteratorIT_EERKNSB_IT0_EE, symObjAddr: 0xDDD4, symBinAddr: 0x1000104D4, symSize: 0x48 }
  - { offset: 0x116ED, size: 0x8, addend: 0x0, symName: __ZNSt3__112__to_addressB8ne180100INS_16reverse_iteratorIPNS_3mapIiiNS_4lessIiEENS_9allocatorINS_4pairIKiiEEEEEEEEvEEu7__decayIDTclsr19__to_address_helperIT_EE6__callclsr3stdE7declvalIRKSD_EEEEESF_, symObjAddr: 0xDE50, symBinAddr: 0x100010550, symSize: 0x24 }
  - { offset: 0x11723, size: 0x8, addend: 0x0, symName: __ZNSt3__1neB8ne180100ERKNS_20__map_const_iteratorINS_21__tree_const_iteratorINS_12__value_typeIiiEEPNS_11__tree_nodeIS3_PvEElEEEESB_, symObjAddr: 0xE41C, symBinAddr: 0x100010B1C, symSize: 0x30 }
  - { offset: 0x11760, size: 0x8, addend: 0x0, symName: __ZNSt3__1neB8ne180100ERKNS_21__tree_const_iteratorINS_12__value_typeIiiEEPNS_11__tree_nodeIS2_PvEElEES9_, symObjAddr: 0xE524, symBinAddr: 0x100010C24, symSize: 0x34 }
  - { offset: 0x1179D, size: 0x8, addend: 0x0, symName: __ZNSt3__1eqB8ne180100ERKNS_21__tree_const_iteratorINS_12__value_typeIiiEEPNS_11__tree_nodeIS2_PvEElEES9_, symObjAddr: 0xE558, symBinAddr: 0x100010C58, symSize: 0x30 }
  - { offset: 0x117DA, size: 0x8, addend: 0x0, symName: __ZNSt3__14nextB8ne180100INS_21__tree_const_iteratorINS_12__value_typeIiiEEPNS_11__tree_nodeIS3_PvEElEELi0EEET_S9_NS_15iterator_traitsIS9_E15difference_typeE, symObjAddr: 0xED58, symBinAddr: 0x100011458, symSize: 0x3C }
  - { offset: 0x11823, size: 0x8, addend: 0x0, symName: __ZNSt3__116__tree_prev_iterB8ne180100IPNS_16__tree_node_baseIPvEEPNS_15__tree_end_nodeIS4_EEEET_T0_, symObjAddr: 0xEE20, symBinAddr: 0x100011520, symSize: 0x88 }
  - { offset: 0x1186F, size: 0x8, addend: 0x0, symName: __ZNSt3__110__tree_maxB8ne180100IPNS_16__tree_node_baseIPvEEEET_S5_, symObjAddr: 0xEEA8, symBinAddr: 0x1000115A8, symSize: 0x40 }
  - { offset: 0x118A4, size: 0x8, addend: 0x0, symName: __ZNSt3__19__advanceB8ne180100INS_21__tree_const_iteratorINS_12__value_typeIiiEEPNS_11__tree_nodeIS3_PvEElEEEEvRT_NS_15iterator_traitsIS9_E15difference_typeENS_26bidirectional_iterator_tagE, symObjAddr: 0xEF20, symBinAddr: 0x100011620, symSize: 0xA4 }
  - { offset: 0x118ED, size: 0x8, addend: 0x0, symName: __ZNSt3__116__tree_next_iterB8ne180100IPNS_15__tree_end_nodeIPNS_16__tree_node_baseIPvEEEES5_EET_T0_, symObjAddr: 0xEFFC, symBinAddr: 0x1000116FC, symSize: 0x80 }
  - { offset: 0x1192B, size: 0x8, addend: 0x0, symName: __ZNSt3__110__tree_minB8ne180100IPNS_16__tree_node_baseIPvEEEET_S5_, symObjAddr: 0xF07C, symBinAddr: 0x10001177C, symSize: 0x40 }
  - { offset: 0x119DA, size: 0x8, addend: 0x0, symName: __ZNSt3__119__allocator_destroyB8ne180100INS_9allocatorINS_3mapIiiNS_4lessIiEENS1_INS_4pairIKiiEEEEEEEENS_16reverse_iteratorINSB_IPS9_EEEESE_EEvRT_T0_T1_, symObjAddr: 0xF810, symBinAddr: 0x100011F10, symSize: 0x70 }
  - { offset: 0x11A3F, size: 0x8, addend: 0x0, symName: __ZNSt3__1neB8ne180100INS_16reverse_iteratorIPNS_3mapIiiNS_4lessIiEENS_9allocatorINS_4pairIKiiEEEEEEEESC_EEbRKNS1_IT_EERKNS1_IT0_EE, symObjAddr: 0xF8BC, symBinAddr: 0x100011FBC, symSize: 0x60 }
  - { offset: 0x11A8B, size: 0x8, addend: 0x0, symName: __ZNSt3__112__to_addressB8ne180100INS_16reverse_iteratorINS1_IPNS_3mapIiiNS_4lessIiEENS_9allocatorINS_4pairIKiiEEEEEEEEEEvEEu7__decayIDTclsr19__to_address_helperIT_EE6__callclsr3stdE7declvalIRKSE_EEEEESG_, symObjAddr: 0xF91C, symBinAddr: 0x10001201C, symSize: 0x24 }
  - { offset: 0x12909, size: 0x8, addend: 0x0, symName: __ZSt28__throw_bad_array_new_lengthB8ne180100v, symObjAddr: 0x46FC, symBinAddr: 0x100006DFC, symSize: 0x34 }
  - { offset: 0x12CF2, size: 0x8, addend: 0x0, symName: _servers, symObjAddr: 0x7B2F0, symBinAddr: 0x100018020, symSize: 0x0 }
  - { offset: 0x12D07, size: 0x8, addend: 0x0, symName: _memory_limit, symObjAddr: 0x7B308, symBinAddr: 0x100018038, symSize: 0x0 }
  - { offset: 0x12D1C, size: 0x8, addend: 0x0, symName: _n, symObjAddr: 0x7B30C, symBinAddr: 0x10001803C, symSize: 0x0 }
  - { offset: 0x12D31, size: 0x8, addend: 0x0, symName: _m, symObjAddr: 0x7B310, symBinAddr: 0x100018040, symSize: 0x0 }
  - { offset: 0x12D46, size: 0x8, addend: 0x0, symName: _team_servers, symObjAddr: 0x7B318, symBinAddr: 0x100018048, symSize: 0x0 }
  - { offset: 0x13325, size: 0x8, addend: 0x0, symName: _team_num_servers, symObjAddr: 0x7B330, symBinAddr: 0x100018060, symSize: 0x0 }
  - { offset: 0x1333A, size: 0x8, addend: 0x0, symName: _min_cost, symObjAddr: 0x10A90, symBinAddr: 0x100018000, symSize: 0x0 }
  - { offset: 0x1334F, size: 0x8, addend: 0x0, symName: _best_k, symObjAddr: 0x7B348, symBinAddr: 0x100018078, symSize: 0x0 }
  - { offset: 0x13364, size: 0x8, addend: 0x0, symName: _answer, symObjAddr: 0x7B350, symBinAddr: 0x100018080, symSize: 0x0 }
  - { offset: 0x13379, size: 0x8, addend: 0x0, symName: _total_cost, symObjAddr: 0x7B368, symBinAddr: 0x100018098, symSize: 0x0 }
  - { offset: 0x1338E, size: 0x8, addend: 0x0, symName: _flag, symObjAddr: 0x7B36C, symBinAddr: 0x10001809C, symSize: 0x0 }
  - { offset: 0x133A3, size: 0x8, addend: 0x0, symName: _st, symObjAddr: 0x7B370, symBinAddr: 0x1000180A0, symSize: 0x0 }
  - { offset: 0x137FB, size: 0x8, addend: 0x0, symName: __ZNSt3__16vectorIiNS_9allocatorIiEEE26__swap_out_circular_bufferERNS_14__split_bufferIiRS2_EE, symObjAddr: 0xA274, symBinAddr: 0x10000C974, symSize: 0x110 }
  - { offset: 0x1383E, size: 0x8, addend: 0x0, symName: __ZNSt3__16vectorI5agentNS_9allocatorIS1_EEE26__swap_out_circular_bufferERNS_14__split_bufferIS1_RS3_EE, symObjAddr: 0xBB18, symBinAddr: 0x10000E218, symSize: 0x110 }
  - { offset: 0x138D1, size: 0x8, addend: 0x0, symName: __ZNSt3__16vectorINS_3mapIiiNS_4lessIiEENS_9allocatorINS_4pairIKiiEEEEEENS4_IS9_EEE26__swap_out_circular_bufferERNS_14__split_bufferIS9_RSA_EE, symObjAddr: 0xD08C, symBinAddr: 0x10000F78C, symSize: 0x110 }
  - { offset: 0x13991, size: 0x8, addend: 0x0, symName: __Z3cmpRK5agentS1_, symObjAddr: 0x0, symBinAddr: 0x100002700, symSize: 0x30 }
  - { offset: 0x139CB, size: 0x8, addend: 0x0, symName: __Z4cmp2RK5agentS1_, symObjAddr: 0x30, symBinAddr: 0x100002730, symSize: 0x30 }
  - { offset: 0x13A05, size: 0x8, addend: 0x0, symName: __Z4cmp3RK5agentS1_, symObjAddr: 0x60, symBinAddr: 0x100002760, symSize: 0x50 }
  - { offset: 0x13A40, size: 0x8, addend: 0x0, symName: __ZNKSt3__16vectorIiNS_9allocatorIiEEE4sizeB8ne180100Ev, symObjAddr: 0xB0, symBinAddr: 0x1000027B0, symSize: 0x28 }
  - { offset: 0x13A66, size: 0x8, addend: 0x0, symName: __ZNSt3__16vectorI5agentNS_9allocatorIS1_EEEC1B8ne180100Ev, symObjAddr: 0xD8, symBinAddr: 0x1000027D8, symSize: 0x2C }
  - { offset: 0x13A90, size: 0x8, addend: 0x0, symName: __ZNSt3__16vectorI5agentNS_9allocatorIS1_EEED1B8ne180100Ev, symObjAddr: 0x104, symBinAddr: 0x100002804, symSize: 0x2C }
  - { offset: 0x13ABA, size: 0x8, addend: 0x0, symName: __ZNSt3__16vectorIiNS_9allocatorIiEEEC1B8ne180100Ev, symObjAddr: 0x130, symBinAddr: 0x100002830, symSize: 0x2C }
  - { offset: 0x13AE4, size: 0x8, addend: 0x0, symName: __ZNSt3__16vectorIiNS_9allocatorIiEEED1B8ne180100Ev, symObjAddr: 0x15C, symBinAddr: 0x10000285C, symSize: 0x2C }
  - { offset: 0x13B0E, size: 0x8, addend: 0x0, symName: __ZNSt3__16vectorINS_3mapIiiNS_4lessIiEENS_9allocatorINS_4pairIKiiEEEEEENS4_IS9_EEEC1B8ne180100Ev, symObjAddr: 0x188, symBinAddr: 0x100002888, symSize: 0x2C }
  - { offset: 0x13B38, size: 0x8, addend: 0x0, symName: __ZNSt3__16vectorINS_3mapIiiNS_4lessIiEENS_9allocatorINS_4pairIKiiEEEEEENS4_IS9_EEED1B8ne180100Ev, symObjAddr: 0x1B4, symBinAddr: 0x1000028B4, symSize: 0x2C }
  - { offset: 0x13B61, size: 0x8, addend: 0x0, symName: __Z8Writeansv, symObjAddr: 0x1E0, symBinAddr: 0x1000028E0, symSize: 0x21C }
  - { offset: 0x13BA8, size: 0x8, addend: 0x0, symName: __ZNSt3__16vectorI5agentNS_9allocatorIS1_EEE5beginB8ne180100Ev, symObjAddr: 0x444, symBinAddr: 0x100002B44, symSize: 0x30 }
  - { offset: 0x13BD0, size: 0x8, addend: 0x0, symName: __ZNSt3__16vectorI5agentNS_9allocatorIS1_EEE3endB8ne180100Ev, symObjAddr: 0x474, symBinAddr: 0x100002B74, symSize: 0x30 }
  - { offset: 0x13EBA, size: 0x8, addend: 0x0, symName: __ZNSt3__114basic_ofstreamIcNS_11char_traitsIcEEEC1EPKcj, symObjAddr: 0x4A4, symBinAddr: 0x100002BA4, symSize: 0x174 }
  - { offset: 0x13F04, size: 0x8, addend: 0x0, symName: __ZNKSt3__19basic_iosIcNS_11char_traitsIcEEEntB8ne180100Ev, symObjAddr: 0x618, symBinAddr: 0x100002D18, symSize: 0x28 }
  - { offset: 0x13F2A, size: 0x8, addend: 0x0, symName: __ZNSt3__113basic_ostreamIcNS_11char_traitsIcEEElsB8ne180100EPFRS3_S4_E, symObjAddr: 0x6BC, symBinAddr: 0x100002DBC, symSize: 0x2C }
  - { offset: 0x13F5E, size: 0x8, addend: 0x0, symName: __ZNSt3__16vectorIiNS_9allocatorIiEEEixB8ne180100Em, symObjAddr: 0x740, symBinAddr: 0x100002E40, symSize: 0x24 }
  - { offset: 0x13F95, size: 0x8, addend: 0x0, symName: __ZNSt3__114basic_ofstreamIcNS_11char_traitsIcEEE5closeEv, symObjAddr: 0x764, symBinAddr: 0x100002E64, symSize: 0x58 }
  - { offset: 0x13FC2, size: 0x8, addend: 0x0, symName: __ZNSt3__114basic_ofstreamIcNS_11char_traitsIcEEED1Ev, symObjAddr: 0x7BC, symBinAddr: 0x100002EBC, symSize: 0x70 }
  - { offset: 0x13FEE, size: 0x8, addend: 0x0, symName: __Z3dfsi, symObjAddr: 0x83C, symBinAddr: 0x100002F3C, symSize: 0x828 }
  - { offset: 0x14132, size: 0x8, addend: 0x0, symName: __ZNSt3__16vectorI5agentNS_9allocatorIS1_EEEixB8ne180100Em, symObjAddr: 0x1064, symBinAddr: 0x100003764, symSize: 0x2C }
  - { offset: 0x14169, size: 0x8, addend: 0x0, symName: __ZNSt3__16vectorINS_3mapIiiNS_4lessIiEENS_9allocatorINS_4pairIKiiEEEEEENS4_IS9_EEEixB8ne180100Em, symObjAddr: 0x1090, symBinAddr: 0x100003790, symSize: 0x2C }
  - { offset: 0x141A0, size: 0x8, addend: 0x0, symName: __ZNSt3__13mapIiiNS_4lessIiEENS_9allocatorINS_4pairIKiiEEEEEixERS5_, symObjAddr: 0x10BC, symBinAddr: 0x1000037BC, symSize: 0xC8 }
  - { offset: 0x14219, size: 0x8, addend: 0x0, symName: __ZNSt3__16vectorIiNS_9allocatorIiEEE9push_backB8ne180100EOi, symObjAddr: 0x11B0, symBinAddr: 0x1000038B0, symSize: 0x90 }
  - { offset: 0x1425F, size: 0x8, addend: 0x0, symName: _main, symObjAddr: 0x1240, symBinAddr: 0x100003940, symSize: 0x40C }
  - { offset: 0x143BA, size: 0x8, addend: 0x0, symName: __ZNSt3__114basic_ifstreamIcNS_11char_traitsIcEEEC1EPKcj, symObjAddr: 0x164C, symBinAddr: 0x100003D4C, symSize: 0x174 }
  - { offset: 0x14404, size: 0x8, addend: 0x0, symName: __ZNSt3__112basic_stringIcNS_11char_traitsIcEENS_9allocatorIcEEEC1B8ne180100Ev, symObjAddr: 0x17C0, symBinAddr: 0x100003EC0, symSize: 0x2C }
  - { offset: 0x14433, size: 0x8, addend: 0x0, symName: __ZN5agentC1Ev, symObjAddr: 0x1B00, symBinAddr: 0x100004200, symSize: 0x2C }
  - { offset: 0x1445F, size: 0x8, addend: 0x0, symName: __ZNSt3__16vectorI5agentNS_9allocatorIS1_EEE9push_backB8ne180100ERKS1_, symObjAddr: 0x1B2C, symBinAddr: 0x10000422C, symSize: 0x90 }
  - { offset: 0x144A5, size: 0x8, addend: 0x0, symName: __ZN5agentD1Ev, symObjAddr: 0x1BBC, symBinAddr: 0x1000042BC, symSize: 0x2C }
  - { offset: 0x144D1, size: 0x8, addend: 0x0, symName: __ZNSt3__16vectorIiNS_9allocatorIiEEE9push_backB8ne180100ERKi, symObjAddr: 0x1CA8, symBinAddr: 0x1000043A8, symSize: 0x90 }
  - { offset: 0x14517, size: 0x8, addend: 0x0, symName: __ZNSt3__16vectorINS_3mapIiiNS_4lessIiEENS_9allocatorINS_4pairIKiiEEEEEENS4_IS9_EEE6resizeEm, symObjAddr: 0x1D38, symBinAddr: 0x100004438, symSize: 0x9C }
  - { offset: 0x1455D, size: 0x8, addend: 0x0, symName: __ZNSt3__16vectorIiNS_9allocatorIiEEE6resizeEmRKi, symObjAddr: 0x1DD4, symBinAddr: 0x1000044D4, symSize: 0x9C }
  - { offset: 0x145B2, size: 0x8, addend: 0x0, symName: __ZNSt3__114basic_ifstreamIcNS_11char_traitsIcEEE5closeEv, symObjAddr: 0x1E70, symBinAddr: 0x100004570, symSize: 0x58 }
  - { offset: 0x145DF, size: 0x8, addend: 0x0, symName: __ZNSt3__114basic_ifstreamIcNS_11char_traitsIcEEED1Ev, symObjAddr: 0x1EC8, symBinAddr: 0x1000045C8, symSize: 0x70 }
  - { offset: 0x1460C, size: 0x8, addend: 0x0, symName: __ZNSt3__114basic_ofstreamIcNS_11char_traitsIcEEED2Ev, symObjAddr: 0x1F38, symBinAddr: 0x100004638, symSize: 0x9C }
  - { offset: 0x14646, size: 0x8, addend: 0x0, symName: __ZTv0_n24_NSt3__114basic_ofstreamIcNS_11char_traitsIcEEED1Ev, symObjAddr: 0x1FD4, symBinAddr: 0x1000046D4, symSize: 0x28 }
  - { offset: 0x1465D, size: 0x8, addend: 0x0, symName: __ZN5agentC2Ev, symObjAddr: 0x1FFC, symBinAddr: 0x1000046FC, symSize: 0x38 }
  - { offset: 0x14689, size: 0x8, addend: 0x0, symName: __ZN5agentD2Ev, symObjAddr: 0x2034, symBinAddr: 0x100004734, symSize: 0x30 }
  - { offset: 0x146B5, size: 0x8, addend: 0x0, symName: __ZNSt3__114basic_ifstreamIcNS_11char_traitsIcEEED2Ev, symObjAddr: 0x2064, symBinAddr: 0x100004764, symSize: 0x9C }
  - { offset: 0x146EF, size: 0x8, addend: 0x0, symName: __ZTv0_n24_NSt3__114basic_ifstreamIcNS_11char_traitsIcEEED1Ev, symObjAddr: 0x2100, symBinAddr: 0x100004800, symSize: 0x28 }
  - { offset: 0x14706, size: 0x8, addend: 0x0, symName: __ZNSt3__16vectorI5agentNS_9allocatorIS1_EEEC2B8ne180100Ev, symObjAddr: 0x2128, symBinAddr: 0x100004828, symSize: 0x44 }
  - { offset: 0x1473A, size: 0x8, addend: 0x0, symName: __ZNSt3__117__compressed_pairIP5agentNS_9allocatorIS1_EEEC1B8ne180100IDnNS_18__default_init_tagEEEOT_OT0_, symObjAddr: 0x216C, symBinAddr: 0x10000486C, symSize: 0x3C }
  - { offset: 0x14792, size: 0x8, addend: 0x0, symName: __ZNSt3__117__compressed_pairIP5agentNS_9allocatorIS1_EEEC2B8ne180100IDnNS_18__default_init_tagEEEOT_OT0_, symObjAddr: 0x21A8, symBinAddr: 0x1000048A8, symSize: 0x40 }
  - { offset: 0x147EA, size: 0x8, addend: 0x0, symName: __ZNSt3__122__compressed_pair_elemIP5agentLi0ELb0EEC2B8ne180100IDnvEEOT_, symObjAddr: 0x21E8, symBinAddr: 0x1000048E8, symSize: 0x1C }
  - { offset: 0x1482C, size: 0x8, addend: 0x0, symName: __ZNSt3__122__compressed_pair_elemINS_9allocatorI5agentEELi1ELb1EEC2B8ne180100ENS_18__default_init_tagE, symObjAddr: 0x2204, symBinAddr: 0x100004904, symSize: 0x2C }
  - { offset: 0x14860, size: 0x8, addend: 0x0, symName: __ZNSt3__19allocatorI5agentEC2B8ne180100Ev, symObjAddr: 0x2230, symBinAddr: 0x100004930, symSize: 0x2C }
  - { offset: 0x1488A, size: 0x8, addend: 0x0, symName: __ZNSt3__116__non_trivial_ifILb1ENS_9allocatorI5agentEEEC2B8ne180100Ev, symObjAddr: 0x225C, symBinAddr: 0x10000495C, symSize: 0x14 }
  - { offset: 0x148B4, size: 0x8, addend: 0x0, symName: __ZNSt3__16vectorI5agentNS_9allocatorIS1_EEED2B8ne180100Ev, symObjAddr: 0x2270, symBinAddr: 0x100004970, symSize: 0x3C }
  - { offset: 0x148DE, size: 0x8, addend: 0x0, symName: __ZNSt3__16vectorI5agentNS_9allocatorIS1_EEE16__destroy_vectorC1B8ne180100ERS4_, symObjAddr: 0x22AC, symBinAddr: 0x1000049AC, symSize: 0x34 }
  - { offset: 0x14917, size: 0x8, addend: 0x0, symName: __ZNSt3__16vectorI5agentNS_9allocatorIS1_EEE16__destroy_vectorclB8ne180100Ev, symObjAddr: 0x22E0, symBinAddr: 0x1000049E0, symSize: 0x90 }
  - { offset: 0x1493D, size: 0x8, addend: 0x0, symName: __ZNSt3__16vectorI5agentNS_9allocatorIS1_EEE16__destroy_vectorC2B8ne180100ERS4_, symObjAddr: 0x2370, symBinAddr: 0x100004A70, symSize: 0x20 }
  - { offset: 0x14976, size: 0x8, addend: 0x0, symName: __ZNSt3__16vectorI5agentNS_9allocatorIS1_EEE7__clearB8ne180100Ev, symObjAddr: 0x2390, symBinAddr: 0x100004A90, symSize: 0x28 }
  - { offset: 0x1499C, size: 0x8, addend: 0x0, symName: __ZNKSt3__16vectorI5agentNS_9allocatorIS1_EEE17__annotate_deleteB8ne180100Ev, symObjAddr: 0x23B8, symBinAddr: 0x100004AB8, symSize: 0x10 }
  - { offset: 0x149C2, size: 0x8, addend: 0x0, symName: __ZNSt3__116allocator_traitsINS_9allocatorI5agentEEE10deallocateB8ne180100ERS3_PS2_m, symObjAddr: 0x23C8, symBinAddr: 0x100004AC8, symSize: 0x34 }
  - { offset: 0x14A04, size: 0x8, addend: 0x0, symName: __ZNSt3__16vectorI5agentNS_9allocatorIS1_EEE7__allocB8ne180100Ev, symObjAddr: 0x23FC, symBinAddr: 0x100004AFC, symSize: 0x28 }
  - { offset: 0x14A2A, size: 0x8, addend: 0x0, symName: __ZNKSt3__16vectorI5agentNS_9allocatorIS1_EEE8capacityB8ne180100Ev, symObjAddr: 0x2424, symBinAddr: 0x100004B24, symSize: 0x40 }
  - { offset: 0x14A50, size: 0x8, addend: 0x0, symName: __ZNSt3__16vectorI5agentNS_9allocatorIS1_EEE22__base_destruct_at_endB8ne180100EPS1_, symObjAddr: 0x2464, symBinAddr: 0x100004B64, symSize: 0xA0 }
  - { offset: 0x14A94, size: 0x8, addend: 0x0, symName: __ZNSt3__116allocator_traitsINS_9allocatorI5agentEEE7destroyB8ne180100IS2_vEEvRS3_PT_, symObjAddr: 0x2504, symBinAddr: 0x100004C04, symSize: 0x2C }
  - { offset: 0x14AD1, size: 0x8, addend: 0x0, symName: __ZNSt3__19allocatorI5agentE7destroyB8ne180100EPS1_, symObjAddr: 0x2544, symBinAddr: 0x100004C44, symSize: 0x28 }
  - { offset: 0x14B05, size: 0x8, addend: 0x0, symName: __ZNSt3__19allocatorI5agentE10deallocateB8ne180100EPS1_m, symObjAddr: 0x256C, symBinAddr: 0x100004C6C, symSize: 0x74 }
  - { offset: 0x14B47, size: 0x8, addend: 0x0, symName: __ZNSt3__117__compressed_pairIP5agentNS_9allocatorIS1_EEE6secondB8ne180100Ev, symObjAddr: 0x2668, symBinAddr: 0x100004D68, symSize: 0x24 }
  - { offset: 0x14B6D, size: 0x8, addend: 0x0, symName: __ZNSt3__122__compressed_pair_elemINS_9allocatorI5agentEELi1ELb1EE5__getB8ne180100Ev, symObjAddr: 0x268C, symBinAddr: 0x100004D8C, symSize: 0x14 }
  - { offset: 0x14B93, size: 0x8, addend: 0x0, symName: __ZNKSt3__16vectorI5agentNS_9allocatorIS1_EEE9__end_capB8ne180100Ev, symObjAddr: 0x26A0, symBinAddr: 0x100004DA0, symSize: 0x28 }
  - { offset: 0x14BB9, size: 0x8, addend: 0x0, symName: __ZNKSt3__117__compressed_pairIP5agentNS_9allocatorIS1_EEE5firstB8ne180100Ev, symObjAddr: 0x26C8, symBinAddr: 0x100004DC8, symSize: 0x24 }
  - { offset: 0x14BDF, size: 0x8, addend: 0x0, symName: __ZNKSt3__122__compressed_pair_elemIP5agentLi0ELb0EE5__getB8ne180100Ev, symObjAddr: 0x26EC, symBinAddr: 0x100004DEC, symSize: 0x14 }
  - { offset: 0x14C05, size: 0x8, addend: 0x0, symName: __ZNSt3__16vectorIiNS_9allocatorIiEEEC2B8ne180100Ev, symObjAddr: 0x2700, symBinAddr: 0x100004E00, symSize: 0x44 }
  - { offset: 0x14C2F, size: 0x8, addend: 0x0, symName: __ZNSt3__117__compressed_pairIPiNS_9allocatorIiEEEC1B8ne180100IDnNS_18__default_init_tagEEEOT_OT0_, symObjAddr: 0x2744, symBinAddr: 0x100004E44, symSize: 0x3C }
  - { offset: 0x14C87, size: 0x8, addend: 0x0, symName: __ZNSt3__117__compressed_pairIPiNS_9allocatorIiEEEC2B8ne180100IDnNS_18__default_init_tagEEEOT_OT0_, symObjAddr: 0x2780, symBinAddr: 0x100004E80, symSize: 0x40 }
  - { offset: 0x14CDF, size: 0x8, addend: 0x0, symName: __ZNSt3__122__compressed_pair_elemIPiLi0ELb0EEC2B8ne180100IDnvEEOT_, symObjAddr: 0x27C0, symBinAddr: 0x100004EC0, symSize: 0x1C }
  - { offset: 0x14D21, size: 0x8, addend: 0x0, symName: __ZNSt3__122__compressed_pair_elemINS_9allocatorIiEELi1ELb1EEC2B8ne180100ENS_18__default_init_tagE, symObjAddr: 0x27DC, symBinAddr: 0x100004EDC, symSize: 0x2C }
  - { offset: 0x14D55, size: 0x8, addend: 0x0, symName: __ZNSt3__19allocatorIiEC2B8ne180100Ev, symObjAddr: 0x2808, symBinAddr: 0x100004F08, symSize: 0x2C }
  - { offset: 0x14D7F, size: 0x8, addend: 0x0, symName: __ZNSt3__116__non_trivial_ifILb1ENS_9allocatorIiEEEC2B8ne180100Ev, symObjAddr: 0x2834, symBinAddr: 0x100004F34, symSize: 0x14 }
  - { offset: 0x14DA9, size: 0x8, addend: 0x0, symName: __ZNSt3__16vectorIiNS_9allocatorIiEEED2B8ne180100Ev, symObjAddr: 0x2848, symBinAddr: 0x100004F48, symSize: 0x3C }
  - { offset: 0x14DD3, size: 0x8, addend: 0x0, symName: __ZNSt3__16vectorIiNS_9allocatorIiEEE16__destroy_vectorC1B8ne180100ERS3_, symObjAddr: 0x2884, symBinAddr: 0x100004F84, symSize: 0x34 }
  - { offset: 0x14E0C, size: 0x8, addend: 0x0, symName: __ZNSt3__16vectorIiNS_9allocatorIiEEE16__destroy_vectorclB8ne180100Ev, symObjAddr: 0x28B8, symBinAddr: 0x100004FB8, symSize: 0x90 }
  - { offset: 0x14E32, size: 0x8, addend: 0x0, symName: __ZNSt3__16vectorIiNS_9allocatorIiEEE16__destroy_vectorC2B8ne180100ERS3_, symObjAddr: 0x2948, symBinAddr: 0x100005048, symSize: 0x20 }
  - { offset: 0x14E6B, size: 0x8, addend: 0x0, symName: __ZNSt3__16vectorIiNS_9allocatorIiEEE7__clearB8ne180100Ev, symObjAddr: 0x2968, symBinAddr: 0x100005068, symSize: 0x28 }
  - { offset: 0x14E91, size: 0x8, addend: 0x0, symName: __ZNKSt3__16vectorIiNS_9allocatorIiEEE17__annotate_deleteB8ne180100Ev, symObjAddr: 0x2990, symBinAddr: 0x100005090, symSize: 0x10 }
  - { offset: 0x14EB7, size: 0x8, addend: 0x0, symName: __ZNSt3__116allocator_traitsINS_9allocatorIiEEE10deallocateB8ne180100ERS2_Pim, symObjAddr: 0x29A0, symBinAddr: 0x1000050A0, symSize: 0x34 }
  - { offset: 0x14EF9, size: 0x8, addend: 0x0, symName: __ZNSt3__16vectorIiNS_9allocatorIiEEE7__allocB8ne180100Ev, symObjAddr: 0x29D4, symBinAddr: 0x1000050D4, symSize: 0x28 }
  - { offset: 0x14F1F, size: 0x8, addend: 0x0, symName: __ZNKSt3__16vectorIiNS_9allocatorIiEEE8capacityB8ne180100Ev, symObjAddr: 0x29FC, symBinAddr: 0x1000050FC, symSize: 0x40 }
  - { offset: 0x14F45, size: 0x8, addend: 0x0, symName: __ZNSt3__16vectorIiNS_9allocatorIiEEE22__base_destruct_at_endB8ne180100EPi, symObjAddr: 0x2A3C, symBinAddr: 0x10000513C, symSize: 0xA0 }
  - { offset: 0x14F89, size: 0x8, addend: 0x0, symName: __ZNSt3__116allocator_traitsINS_9allocatorIiEEE7destroyB8ne180100IivEEvRS2_PT_, symObjAddr: 0x2ADC, symBinAddr: 0x1000051DC, symSize: 0x2C }
  - { offset: 0x14FC6, size: 0x8, addend: 0x0, symName: __ZNSt3__19allocatorIiE7destroyB8ne180100EPi, symObjAddr: 0x2B1C, symBinAddr: 0x10000521C, symSize: 0x14 }
  - { offset: 0x14FFA, size: 0x8, addend: 0x0, symName: __ZNSt3__19allocatorIiE10deallocateB8ne180100EPim, symObjAddr: 0x2B30, symBinAddr: 0x100005230, symSize: 0x70 }
  - { offset: 0x1503C, size: 0x8, addend: 0x0, symName: __ZNSt3__117__compressed_pairIPiNS_9allocatorIiEEE6secondB8ne180100Ev, symObjAddr: 0x2BA0, symBinAddr: 0x1000052A0, symSize: 0x24 }
  - { offset: 0x15062, size: 0x8, addend: 0x0, symName: __ZNSt3__122__compressed_pair_elemINS_9allocatorIiEELi1ELb1EE5__getB8ne180100Ev, symObjAddr: 0x2BC4, symBinAddr: 0x1000052C4, symSize: 0x14 }
  - { offset: 0x15088, size: 0x8, addend: 0x0, symName: __ZNKSt3__16vectorIiNS_9allocatorIiEEE9__end_capB8ne180100Ev, symObjAddr: 0x2BD8, symBinAddr: 0x1000052D8, symSize: 0x28 }
  - { offset: 0x150AE, size: 0x8, addend: 0x0, symName: __ZNKSt3__117__compressed_pairIPiNS_9allocatorIiEEE5firstB8ne180100Ev, symObjAddr: 0x2C00, symBinAddr: 0x100005300, symSize: 0x24 }
  - { offset: 0x150D4, size: 0x8, addend: 0x0, symName: __ZNKSt3__122__compressed_pair_elemIPiLi0ELb0EE5__getB8ne180100Ev, symObjAddr: 0x2C24, symBinAddr: 0x100005324, symSize: 0x14 }
  - { offset: 0x150FA, size: 0x8, addend: 0x0, symName: __ZNSt3__16vectorINS_3mapIiiNS_4lessIiEENS_9allocatorINS_4pairIKiiEEEEEENS4_IS9_EEEC2B8ne180100Ev, symObjAddr: 0x2C38, symBinAddr: 0x100005338, symSize: 0x44 }
  - { offset: 0x15124, size: 0x8, addend: 0x0, symName: __ZNSt3__117__compressed_pairIPNS_3mapIiiNS_4lessIiEENS_9allocatorINS_4pairIKiiEEEEEENS4_IS9_EEEC1B8ne180100IDnNS_18__default_init_tagEEEOT_OT0_, symObjAddr: 0x2C7C, symBinAddr: 0x10000537C, symSize: 0x3C }
  - { offset: 0x1517C, size: 0x8, addend: 0x0, symName: __ZNSt3__117__compressed_pairIPNS_3mapIiiNS_4lessIiEENS_9allocatorINS_4pairIKiiEEEEEENS4_IS9_EEEC2B8ne180100IDnNS_18__default_init_tagEEEOT_OT0_, symObjAddr: 0x2CB8, symBinAddr: 0x1000053B8, symSize: 0x40 }
  - { offset: 0x151D4, size: 0x8, addend: 0x0, symName: __ZNSt3__122__compressed_pair_elemIPNS_3mapIiiNS_4lessIiEENS_9allocatorINS_4pairIKiiEEEEEELi0ELb0EEC2B8ne180100IDnvEEOT_, symObjAddr: 0x2CF8, symBinAddr: 0x1000053F8, symSize: 0x1C }
  - { offset: 0x15216, size: 0x8, addend: 0x0, symName: __ZNSt3__122__compressed_pair_elemINS_9allocatorINS_3mapIiiNS_4lessIiEENS1_INS_4pairIKiiEEEEEEEELi1ELb1EEC2B8ne180100ENS_18__default_init_tagE, symObjAddr: 0x2D14, symBinAddr: 0x100005414, symSize: 0x2C }
  - { offset: 0x1524A, size: 0x8, addend: 0x0, symName: __ZNSt3__19allocatorINS_3mapIiiNS_4lessIiEENS0_INS_4pairIKiiEEEEEEEC2B8ne180100Ev, symObjAddr: 0x2D40, symBinAddr: 0x100005440, symSize: 0x2C }
  - { offset: 0x15274, size: 0x8, addend: 0x0, symName: __ZNSt3__116__non_trivial_ifILb1ENS_9allocatorINS_3mapIiiNS_4lessIiEENS1_INS_4pairIKiiEEEEEEEEEC2B8ne180100Ev, symObjAddr: 0x2D6C, symBinAddr: 0x10000546C, symSize: 0x14 }
  - { offset: 0x1529E, size: 0x8, addend: 0x0, symName: __ZNSt3__16vectorINS_3mapIiiNS_4lessIiEENS_9allocatorINS_4pairIKiiEEEEEENS4_IS9_EEED2B8ne180100Ev, symObjAddr: 0x2D80, symBinAddr: 0x100005480, symSize: 0x3C }
  - { offset: 0x152C8, size: 0x8, addend: 0x0, symName: __ZNSt3__16vectorINS_3mapIiiNS_4lessIiEENS_9allocatorINS_4pairIKiiEEEEEENS4_IS9_EEE16__destroy_vectorC1B8ne180100ERSB_, symObjAddr: 0x2DBC, symBinAddr: 0x1000054BC, symSize: 0x34 }
  - { offset: 0x15301, size: 0x8, addend: 0x0, symName: __ZNSt3__16vectorINS_3mapIiiNS_4lessIiEENS_9allocatorINS_4pairIKiiEEEEEENS4_IS9_EEE16__destroy_vectorclB8ne180100Ev, symObjAddr: 0x2DF0, symBinAddr: 0x1000054F0, symSize: 0x90 }
  - { offset: 0x15327, size: 0x8, addend: 0x0, symName: __ZNSt3__16vectorINS_3mapIiiNS_4lessIiEENS_9allocatorINS_4pairIKiiEEEEEENS4_IS9_EEE16__destroy_vectorC2B8ne180100ERSB_, symObjAddr: 0x2E80, symBinAddr: 0x100005580, symSize: 0x20 }
  - { offset: 0x15360, size: 0x8, addend: 0x0, symName: __ZNSt3__16vectorINS_3mapIiiNS_4lessIiEENS_9allocatorINS_4pairIKiiEEEEEENS4_IS9_EEE7__clearB8ne180100Ev, symObjAddr: 0x2EA0, symBinAddr: 0x1000055A0, symSize: 0x28 }
  - { offset: 0x15386, size: 0x8, addend: 0x0, symName: __ZNKSt3__16vectorINS_3mapIiiNS_4lessIiEENS_9allocatorINS_4pairIKiiEEEEEENS4_IS9_EEE17__annotate_deleteB8ne180100Ev, symObjAddr: 0x2EC8, symBinAddr: 0x1000055C8, symSize: 0x10 }
  - { offset: 0x153AC, size: 0x8, addend: 0x0, symName: __ZNSt3__116allocator_traitsINS_9allocatorINS_3mapIiiNS_4lessIiEENS1_INS_4pairIKiiEEEEEEEEE10deallocateB8ne180100ERSA_PS9_m, symObjAddr: 0x2ED8, symBinAddr: 0x1000055D8, symSize: 0x34 }
  - { offset: 0x153EE, size: 0x8, addend: 0x0, symName: __ZNSt3__16vectorINS_3mapIiiNS_4lessIiEENS_9allocatorINS_4pairIKiiEEEEEENS4_IS9_EEE7__allocB8ne180100Ev, symObjAddr: 0x2F0C, symBinAddr: 0x10000560C, symSize: 0x28 }
  - { offset: 0x15414, size: 0x8, addend: 0x0, symName: __ZNKSt3__16vectorINS_3mapIiiNS_4lessIiEENS_9allocatorINS_4pairIKiiEEEEEENS4_IS9_EEE8capacityB8ne180100Ev, symObjAddr: 0x2F34, symBinAddr: 0x100005634, symSize: 0x40 }
  - { offset: 0x1543A, size: 0x8, addend: 0x0, symName: __ZNSt3__16vectorINS_3mapIiiNS_4lessIiEENS_9allocatorINS_4pairIKiiEEEEEENS4_IS9_EEE22__base_destruct_at_endB8ne180100EPS9_, symObjAddr: 0x2F74, symBinAddr: 0x100005674, symSize: 0xA0 }
  - { offset: 0x1547E, size: 0x8, addend: 0x0, symName: __ZNSt3__116allocator_traitsINS_9allocatorINS_3mapIiiNS_4lessIiEENS1_INS_4pairIKiiEEEEEEEEE7destroyB8ne180100IS9_vEEvRSA_PT_, symObjAddr: 0x3014, symBinAddr: 0x100005714, symSize: 0x2C }
  - { offset: 0x154BB, size: 0x8, addend: 0x0, symName: __ZNSt3__19allocatorINS_3mapIiiNS_4lessIiEENS0_INS_4pairIKiiEEEEEEE7destroyB8ne180100EPS8_, symObjAddr: 0x3054, symBinAddr: 0x100005754, symSize: 0x28 }
  - { offset: 0x154EF, size: 0x8, addend: 0x0, symName: __ZNSt3__13mapIiiNS_4lessIiEENS_9allocatorINS_4pairIKiiEEEEED1B8ne180100Ev, symObjAddr: 0x307C, symBinAddr: 0x10000577C, symSize: 0x2C }
  - { offset: 0x15519, size: 0x8, addend: 0x0, symName: __ZNSt3__13mapIiiNS_4lessIiEENS_9allocatorINS_4pairIKiiEEEEED2B8ne180100Ev, symObjAddr: 0x30A8, symBinAddr: 0x1000057A8, symSize: 0x2C }
  - { offset: 0x15543, size: 0x8, addend: 0x0, symName: __ZNSt3__16__treeINS_12__value_typeIiiEENS_19__map_value_compareIiS2_NS_4lessIiEELb1EEENS_9allocatorIS2_EEED1Ev, symObjAddr: 0x30D4, symBinAddr: 0x1000057D4, symSize: 0x2C }
  - { offset: 0x1556F, size: 0x8, addend: 0x0, symName: __ZNSt3__16__treeINS_12__value_typeIiiEENS_19__map_value_compareIiS2_NS_4lessIiEELb1EEENS_9allocatorIS2_EEED2Ev, symObjAddr: 0x3100, symBinAddr: 0x100005800, symSize: 0x38 }
  - { offset: 0x1559B, size: 0x8, addend: 0x0, symName: __ZNSt3__16__treeINS_12__value_typeIiiEENS_19__map_value_compareIiS2_NS_4lessIiEELb1EEENS_9allocatorIS2_EEE7destroyEPNS_11__tree_nodeIS2_PvEE, symObjAddr: 0x3138, symBinAddr: 0x100005838, symSize: 0xC0 }
  - { offset: 0x155EF, size: 0x8, addend: 0x0, symName: __ZNKSt3__16__treeINS_12__value_typeIiiEENS_19__map_value_compareIiS2_NS_4lessIiEELb1EEENS_9allocatorIS2_EEE6__rootB8ne180100Ev, symObjAddr: 0x31F8, symBinAddr: 0x1000058F8, symSize: 0x28 }
  - { offset: 0x15615, size: 0x8, addend: 0x0, symName: __ZNSt3__16__treeINS_12__value_typeIiiEENS_19__map_value_compareIiS2_NS_4lessIiEELb1EEENS_9allocatorIS2_EEE12__node_allocB8ne180100Ev, symObjAddr: 0x3220, symBinAddr: 0x100005920, symSize: 0x28 }
  - { offset: 0x1563B, size: 0x8, addend: 0x0, symName: __ZNSt3__116allocator_traitsINS_9allocatorINS_11__tree_nodeINS_12__value_typeIiiEEPvEEEEE7destroyB8ne180100INS_4pairIKiiEEvvEEvRS7_PT_, symObjAddr: 0x3248, symBinAddr: 0x100005948, symSize: 0x28 }
  - { offset: 0x15675, size: 0x8, addend: 0x0, symName: __ZNSt3__122__tree_key_value_typesINS_12__value_typeIiiEEE9__get_ptrB8ne180100ERS2_, symObjAddr: 0x3270, symBinAddr: 0x100005970, symSize: 0x24 }
  - { offset: 0x15699, size: 0x8, addend: 0x0, symName: __ZNSt3__116allocator_traitsINS_9allocatorINS_11__tree_nodeINS_12__value_typeIiiEEPvEEEEE10deallocateB8ne180100ERS7_PS6_m, symObjAddr: 0x3294, symBinAddr: 0x100005994, symSize: 0x34 }
  - { offset: 0x156DB, size: 0x8, addend: 0x0, symName: __ZNSt3__117__compressed_pairINS_15__tree_end_nodeIPNS_16__tree_node_baseIPvEEEENS_9allocatorINS_11__tree_nodeINS_12__value_typeIiiEES3_EEEEE6secondB8ne180100Ev, symObjAddr: 0x32C8, symBinAddr: 0x1000059C8, symSize: 0x24 }
  - { offset: 0x15701, size: 0x8, addend: 0x0, symName: __ZNSt3__122__compressed_pair_elemINS_9allocatorINS_11__tree_nodeINS_12__value_typeIiiEEPvEEEELi1ELb1EE5__getB8ne180100Ev, symObjAddr: 0x32EC, symBinAddr: 0x1000059EC, symSize: 0x14 }
  - { offset: 0x15727, size: 0x8, addend: 0x0, symName: __ZNSt3__112__value_typeIiiE11__get_valueB8ne180100Ev, symObjAddr: 0x3310, symBinAddr: 0x100005A10, symSize: 0x14 }
  - { offset: 0x1574D, size: 0x8, addend: 0x0, symName: __ZNSt3__19allocatorINS_11__tree_nodeINS_12__value_typeIiiEEPvEEE10deallocateB8ne180100EPS5_m, symObjAddr: 0x3324, symBinAddr: 0x100005A24, symSize: 0x74 }
  - { offset: 0x1578F, size: 0x8, addend: 0x0, symName: __ZNKSt3__16__treeINS_12__value_typeIiiEENS_19__map_value_compareIiS2_NS_4lessIiEELb1EEENS_9allocatorIS2_EEE10__end_nodeB8ne180100Ev, symObjAddr: 0x3398, symBinAddr: 0x100005A98, symSize: 0x2C }
  - { offset: 0x157B5, size: 0x8, addend: 0x0, symName: __ZNSt3__114pointer_traitsIPNS_15__tree_end_nodeIPNS_16__tree_node_baseIPvEEEEE10pointer_toB8ne180100ERS6_, symObjAddr: 0x33C4, symBinAddr: 0x100005AC4, symSize: 0x14 }
  - { offset: 0x157D8, size: 0x8, addend: 0x0, symName: __ZNKSt3__117__compressed_pairINS_15__tree_end_nodeIPNS_16__tree_node_baseIPvEEEENS_9allocatorINS_11__tree_nodeINS_12__value_typeIiiEES3_EEEEE5firstB8ne180100Ev, symObjAddr: 0x33D8, symBinAddr: 0x100005AD8, symSize: 0x24 }
  - { offset: 0x157FE, size: 0x8, addend: 0x0, symName: __ZNKSt3__122__compressed_pair_elemINS_15__tree_end_nodeIPNS_16__tree_node_baseIPvEEEELi0ELb0EE5__getB8ne180100Ev, symObjAddr: 0x33FC, symBinAddr: 0x100005AFC, symSize: 0x14 }
  - { offset: 0x15824, size: 0x8, addend: 0x0, symName: __ZNSt3__19allocatorINS_3mapIiiNS_4lessIiEENS0_INS_4pairIKiiEEEEEEE10deallocateB8ne180100EPS8_m, symObjAddr: 0x3410, symBinAddr: 0x100005B10, symSize: 0x74 }
  - { offset: 0x15866, size: 0x8, addend: 0x0, symName: __ZNSt3__117__compressed_pairIPNS_3mapIiiNS_4lessIiEENS_9allocatorINS_4pairIKiiEEEEEENS4_IS9_EEE6secondB8ne180100Ev, symObjAddr: 0x3484, symBinAddr: 0x100005B84, symSize: 0x24 }
  - { offset: 0x1588C, size: 0x8, addend: 0x0, symName: __ZNSt3__122__compressed_pair_elemINS_9allocatorINS_3mapIiiNS_4lessIiEENS1_INS_4pairIKiiEEEEEEEELi1ELb1EE5__getB8ne180100Ev, symObjAddr: 0x34A8, symBinAddr: 0x100005BA8, symSize: 0x14 }
  - { offset: 0x158B2, size: 0x8, addend: 0x0, symName: __ZNKSt3__16vectorINS_3mapIiiNS_4lessIiEENS_9allocatorINS_4pairIKiiEEEEEENS4_IS9_EEE9__end_capB8ne180100Ev, symObjAddr: 0x34BC, symBinAddr: 0x100005BBC, symSize: 0x28 }
  - { offset: 0x158D8, size: 0x8, addend: 0x0, symName: __ZNKSt3__117__compressed_pairIPNS_3mapIiiNS_4lessIiEENS_9allocatorINS_4pairIKiiEEEEEENS4_IS9_EEE5firstB8ne180100Ev, symObjAddr: 0x34E4, symBinAddr: 0x100005BE4, symSize: 0x24 }
  - { offset: 0x158FE, size: 0x8, addend: 0x0, symName: __ZNKSt3__122__compressed_pair_elemIPNS_3mapIiiNS_4lessIiEENS_9allocatorINS_4pairIKiiEEEEEELi0ELb0EE5__getB8ne180100Ev, symObjAddr: 0x3508, symBinAddr: 0x100005C08, symSize: 0x14 }
  - { offset: 0x15924, size: 0x8, addend: 0x0, symName: __ZNSt3__16vectorI5agentNS_9allocatorIS1_EEE11__make_iterB8ne180100EPS1_, symObjAddr: 0x351C, symBinAddr: 0x100005C1C, symSize: 0x30 }
  - { offset: 0x15959, size: 0x8, addend: 0x0, symName: __ZNSt3__111__wrap_iterIP5agentEC1B8ne180100ES2_, symObjAddr: 0x354C, symBinAddr: 0x100005C4C, symSize: 0x34 }
  - { offset: 0x15991, size: 0x8, addend: 0x0, symName: __ZNSt3__111__wrap_iterIP5agentEC2B8ne180100ES2_, symObjAddr: 0x3580, symBinAddr: 0x100005C80, symSize: 0x20 }
  - { offset: 0x159C9, size: 0x8, addend: 0x0, symName: __ZNSt3__18_IterOpsINS_17_ClassicAlgPolicyEE4nextB8ne180100IP5agentEET_S6_S6_, symObjAddr: 0x37F8, symBinAddr: 0x100005EF8, symSize: 0x18 }
  - { offset: 0x159FF, size: 0x8, addend: 0x0, symName: __ZNSt3__18_IterOpsINS_17_ClassicAlgPolicyEE9iter_swapB8ne180100IRP5agentS6_EEvOT_OT0_, symObjAddr: 0x39F8, symBinAddr: 0x1000060F8, symSize: 0x34 }
  - { offset: 0x15A42, size: 0x8, addend: 0x0, symName: __ZN5agentC1ERKS_, symObjAddr: 0x3E04, symBinAddr: 0x100006504, symSize: 0x34 }
  - { offset: 0x15A77, size: 0x8, addend: 0x0, symName: __ZN5agentaSERKS_, symObjAddr: 0x3E38, symBinAddr: 0x100006538, symSize: 0x50 }
  - { offset: 0x15AA8, size: 0x8, addend: 0x0, symName: __ZN5agentC2ERKS_, symObjAddr: 0x3E88, symBinAddr: 0x100006588, symSize: 0x50 }
  - { offset: 0x15ADD, size: 0x8, addend: 0x0, symName: __ZNSt3__16vectorIiNS_9allocatorIiEEEC1ERKS3_, symObjAddr: 0x3ED8, symBinAddr: 0x1000065D8, symSize: 0x34 }
  - { offset: 0x15B18, size: 0x8, addend: 0x0, symName: __ZNSt3__16vectorIiNS_9allocatorIiEEEC2ERKS3_, symObjAddr: 0x3F0C, symBinAddr: 0x10000660C, symSize: 0x94 }
  - { offset: 0x15B5D, size: 0x8, addend: 0x0, symName: __ZNSt3__116allocator_traitsINS_9allocatorIiEEE37select_on_container_copy_constructionB8ne180100IS2_vvEES2_RKS2_, symObjAddr: 0x3FA0, symBinAddr: 0x1000066A0, symSize: 0x10 }
  - { offset: 0x15B8C, size: 0x8, addend: 0x0, symName: __ZNKSt3__16vectorIiNS_9allocatorIiEEE7__allocB8ne180100Ev, symObjAddr: 0x3FB0, symBinAddr: 0x1000066B0, symSize: 0x28 }
  - { offset: 0x15BB7, size: 0x8, addend: 0x0, symName: __ZNSt3__117__compressed_pairIPiNS_9allocatorIiEEEC1B8ne180100IDnS3_EEOT_OT0_, symObjAddr: 0x3FD8, symBinAddr: 0x1000066D8, symSize: 0x3C }
  - { offset: 0x15C0F, size: 0x8, addend: 0x0, symName: __ZNSt3__16vectorIiNS_9allocatorIiEEE16__init_with_sizeB8ne180100IPiS5_EEvT_T0_m, symObjAddr: 0x4014, symBinAddr: 0x100006714, symSize: 0xC0 }
  - { offset: 0x15C83, size: 0x8, addend: 0x0, symName: __ZNKSt3__117__compressed_pairIPiNS_9allocatorIiEEE6secondB8ne180100Ev, symObjAddr: 0x40D4, symBinAddr: 0x1000067D4, symSize: 0x24 }
  - { offset: 0x15CA9, size: 0x8, addend: 0x0, symName: __ZNKSt3__122__compressed_pair_elemINS_9allocatorIiEELi1ELb1EE5__getB8ne180100Ev, symObjAddr: 0x40F8, symBinAddr: 0x1000067F8, symSize: 0x14 }
  - { offset: 0x15CCF, size: 0x8, addend: 0x0, symName: __ZNSt3__117__compressed_pairIPiNS_9allocatorIiEEEC2B8ne180100IDnS3_EEOT_OT0_, symObjAddr: 0x410C, symBinAddr: 0x10000680C, symSize: 0x44 }
  - { offset: 0x15D27, size: 0x8, addend: 0x0, symName: __ZNSt3__122__compressed_pair_elemINS_9allocatorIiEELi1ELb1EEC2B8ne180100IS2_vEEOT_, symObjAddr: 0x4150, symBinAddr: 0x100006850, symSize: 0x18 }
  - { offset: 0x15D69, size: 0x8, addend: 0x0, symName: __ZNSt3__16vectorIiNS_9allocatorIiEEE11__vallocateB8ne180100Em, symObjAddr: 0x41A8, symBinAddr: 0x1000068A8, symSize: 0xAC }
  - { offset: 0x15DAD, size: 0x8, addend: 0x0, symName: __ZNSt3__16vectorIiNS_9allocatorIiEEE18__construct_at_endIPiS5_EEvT_T0_m, symObjAddr: 0x4254, symBinAddr: 0x100006954, symSize: 0x94 }
  - { offset: 0x15E23, size: 0x8, addend: 0x0, symName: __ZNSt3__128__exception_guard_exceptionsINS_6vectorIiNS_9allocatorIiEEE16__destroy_vectorEE10__completeB8ne180100Ev, symObjAddr: 0x42E8, symBinAddr: 0x1000069E8, symSize: 0x1C }
  - { offset: 0x15E49, size: 0x8, addend: 0x0, symName: __ZNSt3__128__exception_guard_exceptionsINS_6vectorIiNS_9allocatorIiEEE16__destroy_vectorEED1B8ne180100Ev, symObjAddr: 0x4304, symBinAddr: 0x100006A04, symSize: 0x2C }
  - { offset: 0x15E73, size: 0x8, addend: 0x0, symName: __ZNSt3__128__exception_guard_exceptionsINS_6vectorIiNS_9allocatorIiEEE16__destroy_vectorEEC1B8ne180100ES5_, symObjAddr: 0x4330, symBinAddr: 0x100006A30, symSize: 0x34 }
  - { offset: 0x15EAB, size: 0x8, addend: 0x0, symName: __ZNSt3__128__exception_guard_exceptionsINS_6vectorIiNS_9allocatorIiEEE16__destroy_vectorEEC2B8ne180100ES5_, symObjAddr: 0x4364, symBinAddr: 0x100006A64, symSize: 0x24 }
  - { offset: 0x15EE3, size: 0x8, addend: 0x0, symName: __ZNKSt3__16vectorIiNS_9allocatorIiEEE8max_sizeEv, symObjAddr: 0x4388, symBinAddr: 0x100006A88, symSize: 0x74 }
  - { offset: 0x15F0B, size: 0x8, addend: 0x0, symName: __ZNKSt3__16vectorIiNS_9allocatorIiEEE20__throw_length_errorB8ne180100Ev, symObjAddr: 0x43FC, symBinAddr: 0x100006AFC, symSize: 0x1C }
  - { offset: 0x15F31, size: 0x8, addend: 0x0, symName: __ZNSt3__16vectorIiNS_9allocatorIiEEE9__end_capB8ne180100Ev, symObjAddr: 0x4458, symBinAddr: 0x100006B58, symSize: 0x28 }
  - { offset: 0x15F57, size: 0x8, addend: 0x0, symName: __ZNKSt3__16vectorIiNS_9allocatorIiEEE14__annotate_newB8ne180100Em, symObjAddr: 0x4480, symBinAddr: 0x100006B80, symSize: 0x14 }
  - { offset: 0x15F8C, size: 0x8, addend: 0x0, symName: __ZNSt3__116allocator_traitsINS_9allocatorIiEEE8max_sizeB8ne180100IS2_vEEmRKS2_, symObjAddr: 0x44C0, symBinAddr: 0x100006BC0, symSize: 0x24 }
  - { offset: 0x15FBA, size: 0x8, addend: 0x0, symName: __ZNSt3__114numeric_limitsIlE3maxB8ne180100Ev, symObjAddr: 0x44E4, symBinAddr: 0x100006BE4, symSize: 0x14 }
  - { offset: 0x15FD8, size: 0x8, addend: 0x0, symName: __ZNKSt3__16__lessIvvEclB8ne180100ImmEEbRKT_RKT0_, symObjAddr: 0x454C, symBinAddr: 0x100006C4C, symSize: 0x34 }
  - { offset: 0x1602C, size: 0x8, addend: 0x0, symName: __ZNKSt3__19allocatorIiE8max_sizeB8ne180100Ev, symObjAddr: 0x4580, symBinAddr: 0x100006C80, symSize: 0x14 }
  - { offset: 0x16052, size: 0x8, addend: 0x0, symName: __ZNSt3__123__libcpp_numeric_limitsIlLb1EE3maxB8ne180100Ev, symObjAddr: 0x4594, symBinAddr: 0x100006C94, symSize: 0x8 }
  - { offset: 0x16066, size: 0x8, addend: 0x0, symName: __ZNSt12length_errorC1B8ne180100EPKc, symObjAddr: 0x4600, symBinAddr: 0x100006D00, symSize: 0x34 }
  - { offset: 0x1609E, size: 0x8, addend: 0x0, symName: __ZNSt12length_errorC2B8ne180100EPKc, symObjAddr: 0x4634, symBinAddr: 0x100006D34, symSize: 0x44 }
  - { offset: 0x160D6, size: 0x8, addend: 0x0, symName: __ZNSt3__19allocatorIiE8allocateB8ne180100Em, symObjAddr: 0x4678, symBinAddr: 0x100006D78, symSize: 0x84 }
  - { offset: 0x1610A, size: 0x8, addend: 0x0, symName: __ZNSt3__117__compressed_pairIPiNS_9allocatorIiEEE5firstB8ne180100Ev, symObjAddr: 0x477C, symBinAddr: 0x100006E7C, symSize: 0x24 }
  - { offset: 0x16130, size: 0x8, addend: 0x0, symName: __ZNSt3__122__compressed_pair_elemIPiLi0ELb0EE5__getB8ne180100Ev, symObjAddr: 0x47A0, symBinAddr: 0x100006EA0, symSize: 0x14 }
  - { offset: 0x1616F, size: 0x8, addend: 0x0, symName: __ZNSt3__16vectorIiNS_9allocatorIiEEE21_ConstructTransactionC1B8ne180100ERS3_m, symObjAddr: 0x47B4, symBinAddr: 0x100006EB4, symSize: 0x3C }
  - { offset: 0x161B7, size: 0x8, addend: 0x0, symName: __ZNSt3__16vectorIiNS_9allocatorIiEEE21_ConstructTransactionD1B8ne180100Ev, symObjAddr: 0x4870, symBinAddr: 0x100006F70, symSize: 0x2C }
  - { offset: 0x161E1, size: 0x8, addend: 0x0, symName: __ZNSt3__16vectorIiNS_9allocatorIiEEE21_ConstructTransactionC2B8ne180100ERS3_m, symObjAddr: 0x489C, symBinAddr: 0x100006F9C, symSize: 0x44 }
  - { offset: 0x16242, size: 0x8, addend: 0x0, symName: __ZNSt3__14pairIPiS1_EC1B8ne180100ERKS1_S4_, symObjAddr: 0x4AE8, symBinAddr: 0x1000071E8, symSize: 0x3C }
  - { offset: 0x16288, size: 0x8, addend: 0x0, symName: __ZNSt3__14pairIPiS1_EC2B8ne180100ERKS1_S4_, symObjAddr: 0x4B24, symBinAddr: 0x100007224, symSize: 0x34 }
  - { offset: 0x162CE, size: 0x8, addend: 0x0, symName: __ZNSt3__129_AllocatorDestroyRangeReverseINS_9allocatorIiEEPiEC1B8ne180100ERS2_RS3_S6_, symObjAddr: 0x4BA4, symBinAddr: 0x1000072A4, symSize: 0x44 }
  - { offset: 0x16325, size: 0x8, addend: 0x0, symName: __ZNSt3__116allocator_traitsINS_9allocatorIiEEE9constructB8ne180100IiJRiEvEEvRS2_PT_DpOT0_, symObjAddr: 0x4BE8, symBinAddr: 0x1000072E8, symSize: 0x34 }
  - { offset: 0x1637C, size: 0x8, addend: 0x0, symName: __ZNSt3__128__exception_guard_exceptionsINS_29_AllocatorDestroyRangeReverseINS_9allocatorIiEEPiEEE10__completeB8ne180100Ev, symObjAddr: 0x4C1C, symBinAddr: 0x10000731C, symSize: 0x1C }
  - { offset: 0x163A2, size: 0x8, addend: 0x0, symName: __ZNSt3__128__exception_guard_exceptionsINS_29_AllocatorDestroyRangeReverseINS_9allocatorIiEEPiEEED1B8ne180100Ev, symObjAddr: 0x4C38, symBinAddr: 0x100007338, symSize: 0x2C }
  - { offset: 0x163CC, size: 0x8, addend: 0x0, symName: __ZNSt3__128__exception_guard_exceptionsINS_29_AllocatorDestroyRangeReverseINS_9allocatorIiEEPiEEEC1B8ne180100ES5_, symObjAddr: 0x4C64, symBinAddr: 0x100007364, symSize: 0x34 }
  - { offset: 0x16405, size: 0x8, addend: 0x0, symName: __ZNSt3__128__exception_guard_exceptionsINS_29_AllocatorDestroyRangeReverseINS_9allocatorIiEEPiEEEC2B8ne180100ES5_, symObjAddr: 0x4C98, symBinAddr: 0x100007398, symSize: 0x30 }
  - { offset: 0x1643E, size: 0x8, addend: 0x0, symName: __ZNSt3__129_AllocatorDestroyRangeReverseINS_9allocatorIiEEPiEC2B8ne180100ERS2_RS3_S6_, symObjAddr: 0x4CC8, symBinAddr: 0x1000073C8, symSize: 0x38 }
  - { offset: 0x16495, size: 0x8, addend: 0x0, symName: __ZNSt3__19allocatorIiE9constructB8ne180100IiJRiEEEvPT_DpOT0_, symObjAddr: 0x4D00, symBinAddr: 0x100007400, symSize: 0x28 }
  - { offset: 0x164EB, size: 0x8, addend: 0x0, symName: __ZNSt3__128__exception_guard_exceptionsINS_29_AllocatorDestroyRangeReverseINS_9allocatorIiEEPiEEED2B8ne180100Ev, symObjAddr: 0x4D28, symBinAddr: 0x100007428, symSize: 0x48 }
  - { offset: 0x16515, size: 0x8, addend: 0x0, symName: __ZNKSt3__129_AllocatorDestroyRangeReverseINS_9allocatorIiEEPiEclB8ne180100Ev, symObjAddr: 0x4D70, symBinAddr: 0x100007470, symSize: 0x68 }
  - { offset: 0x1653B, size: 0x8, addend: 0x0, symName: __ZNSt3__116reverse_iteratorIPiEC1B8ne180100ES1_, symObjAddr: 0x4E48, symBinAddr: 0x100007548, symSize: 0x34 }
  - { offset: 0x16573, size: 0x8, addend: 0x0, symName: __ZNSt3__116reverse_iteratorIPiEppB8ne180100Ev, symObjAddr: 0x4EE8, symBinAddr: 0x1000075E8, symSize: 0x20 }
  - { offset: 0x16599, size: 0x8, addend: 0x0, symName: __ZNKSt3__116reverse_iteratorIPiE4baseB8ne180100Ev, symObjAddr: 0x4F08, symBinAddr: 0x100007608, symSize: 0x18 }
  - { offset: 0x165C4, size: 0x8, addend: 0x0, symName: __ZNSt3__119__to_address_helperINS_16reverse_iteratorIPiEEvE6__callB8ne180100ERKS3_, symObjAddr: 0x4F20, symBinAddr: 0x100007620, symSize: 0x4C }
  - { offset: 0x165E7, size: 0x8, addend: 0x0, symName: __ZNKSt3__116reverse_iteratorIPiEptB8ne180100Ev, symObjAddr: 0x4F6C, symBinAddr: 0x10000766C, symSize: 0x24 }
  - { offset: 0x1660D, size: 0x8, addend: 0x0, symName: __ZNKSt3__116reverse_iteratorIPiEdeB8ne180100Ev, symObjAddr: 0x4F90, symBinAddr: 0x100007690, symSize: 0x28 }
  - { offset: 0x16641, size: 0x8, addend: 0x0, symName: __ZNSt3__116reverse_iteratorIPiEC2B8ne180100ES1_, symObjAddr: 0x4FB8, symBinAddr: 0x1000076B8, symSize: 0x28 }
  - { offset: 0x16679, size: 0x8, addend: 0x0, symName: __ZNSt3__118__unwrap_iter_implIPiLb1EE8__unwrapB8ne180100ES1_, symObjAddr: 0x4FE0, symBinAddr: 0x1000076E0, symSize: 0x24 }
  - { offset: 0x1669C, size: 0x8, addend: 0x0, symName: __ZNSt3__118__unwrap_iter_implIPiLb1EE8__rewrapB8ne180100ES1_S1_, symObjAddr: 0x5004, symBinAddr: 0x100007704, symSize: 0x50 }
  - { offset: 0x166CD, size: 0x8, addend: 0x0, symName: __ZNSt3__16vectorIiNS_9allocatorIiEEE21_ConstructTransactionD2B8ne180100Ev, symObjAddr: 0x5054, symBinAddr: 0x100007754, symSize: 0x20 }
  - { offset: 0x166F7, size: 0x8, addend: 0x0, symName: __ZNSt3__128__exception_guard_exceptionsINS_6vectorIiNS_9allocatorIiEEE16__destroy_vectorEED2B8ne180100Ev, symObjAddr: 0x5074, symBinAddr: 0x100007774, symSize: 0x48 }
  - { offset: 0x16721, size: 0x8, addend: 0x0, symName: __ZNSt3__16vectorIiNS_9allocatorIiEEEaSB8ne180100ERKS3_, symObjAddr: 0x50BC, symBinAddr: 0x1000077BC, symSize: 0x68 }
  - { offset: 0x16758, size: 0x8, addend: 0x0, symName: __ZNSt3__16vectorIiNS_9allocatorIiEEE19__copy_assign_allocB8ne180100ERKS3_, symObjAddr: 0x5124, symBinAddr: 0x100007824, symSize: 0x2C }
  - { offset: 0x1678D, size: 0x8, addend: 0x0, symName: __ZNSt3__16vectorIiNS_9allocatorIiEEE6assignIPiLi0EEEvT_S6_, symObjAddr: 0x5150, symBinAddr: 0x100007850, symSize: 0x5C }
  - { offset: 0x167E2, size: 0x8, addend: 0x0, symName: __ZNSt3__16vectorIiNS_9allocatorIiEEE19__copy_assign_allocB8ne180100ERKS3_NS_17integral_constantIbLb0EEE, symObjAddr: 0x51AC, symBinAddr: 0x1000078AC, symSize: 0x14 }
  - { offset: 0x1681E, size: 0x8, addend: 0x0, symName: __ZNSt3__16vectorIiNS_9allocatorIiEEE18__assign_with_sizeB8ne180100IPiS5_EEvT_T0_l, symObjAddr: 0x51C0, symBinAddr: 0x1000078C0, symSize: 0x164 }
  - { offset: 0x168CE, size: 0x8, addend: 0x0, symName: __ZNSt3__16vectorIiNS_9allocatorIiEEE17__destruct_at_endB8ne180100EPi, symObjAddr: 0x5408, symBinAddr: 0x100007B08, symSize: 0x4C }
  - { offset: 0x16912, size: 0x8, addend: 0x0, symName: __ZNSt3__16vectorIiNS_9allocatorIiEEE13__vdeallocateEv, symObjAddr: 0x5454, symBinAddr: 0x100007B54, symSize: 0x94 }
  - { offset: 0x1693A, size: 0x8, addend: 0x0, symName: __ZNKSt3__16vectorIiNS_9allocatorIiEEE11__recommendB8ne180100Em, symObjAddr: 0x54E8, symBinAddr: 0x100007BE8, symSize: 0xB4 }
  - { offset: 0x16999, size: 0x8, addend: 0x0, symName: __ZNKSt3__114__copy_trivialclB8ne180100IiiLi0EEENS_4pairIPT_PT0_EES4_S4_S6_, symObjAddr: 0x5708, symBinAddr: 0x100007E08, symSize: 0x48 }
  - { offset: 0x16A01, size: 0x8, addend: 0x0, symName: __ZNKSt3__16vectorIiNS_9allocatorIiEEE17__annotate_shrinkB8ne180100Em, symObjAddr: 0x58D4, symBinAddr: 0x100007FD4, symSize: 0x14 }
  - { offset: 0x16A36, size: 0x8, addend: 0x0, symName: __ZNSt3__16vectorIiNS_9allocatorIiEEE5clearB8ne180100Ev, symObjAddr: 0x58E8, symBinAddr: 0x100007FE8, symSize: 0x44 }
  - { offset: 0x16A70, size: 0x8, addend: 0x0, symName: __ZNSt3__18_IterOpsINS_17_ClassicAlgPolicyEE11__iter_moveB8ne180100IRP5agentLi0EEEDTclsr3stdE4movedeclsr3stdE7declvalIRT_EEEEOS7_, symObjAddr: 0x59D4, symBinAddr: 0x1000080D4, symSize: 0x28 }
  - { offset: 0x16AA2, size: 0x8, addend: 0x0, symName: __ZNSt3__18_IterOpsINS_17_ClassicAlgPolicyEE25__validate_iter_referenceB8ne180100IRP5agentEEvv, symObjAddr: 0x59FC, symBinAddr: 0x1000080FC, symSize: 0x4 }
  - { offset: 0x16AC0, size: 0x8, addend: 0x0, symName: __ZNSt3__118__unwrap_iter_implINS_11__wrap_iterIP5agentEELb1EE8__unwrapB8ne180100ES4_, symObjAddr: 0x5DDC, symBinAddr: 0x1000084DC, symSize: 0x28 }
  - { offset: 0x16AED, size: 0x8, addend: 0x0, symName: __ZNSt3__119__to_address_helperINS_11__wrap_iterIP5agentEEvE6__callB8ne180100ERKS4_, symObjAddr: 0x5E28, symBinAddr: 0x100008528, symSize: 0x30 }
  - { offset: 0x16B10, size: 0x8, addend: 0x0, symName: __ZNSt3__114pointer_traitsINS_11__wrap_iterIP5agentEEE10to_addressB8ne180100ES4_, symObjAddr: 0x5E58, symBinAddr: 0x100008558, symSize: 0x2C }
  - { offset: 0x16B33, size: 0x8, addend: 0x0, symName: __ZNKSt3__111__wrap_iterIP5agentE4baseB8ne180100Ev, symObjAddr: 0x5E84, symBinAddr: 0x100008584, symSize: 0x18 }
  - { offset: 0x16B5E, size: 0x8, addend: 0x0, symName: __ZNSt3__18_IterOpsINS_17_ClassicAlgPolicyEE9iter_swapB8ne180100IRP5agentS5_EEvOT_OT0_, symObjAddr: 0x697C, symBinAddr: 0x10000907C, symSize: 0x34 }
  - { offset: 0x16BA1, size: 0x8, addend: 0x0, symName: __ZNSt3__18_IterOpsINS_17_ClassicAlgPolicyEE9iter_swapB8ne180100IP5agentS5_EEvOT_OT0_, symObjAddr: 0x8020, symBinAddr: 0x10000A720, symSize: 0x34 }
  - { offset: 0x16BFD, size: 0x8, addend: 0x0, symName: __ZNSt3__14pairIP5agentbEC1B8ne180100ERKS2_RKb, symObjAddr: 0x8070, symBinAddr: 0x10000A770, symSize: 0x3C }
  - { offset: 0x16C43, size: 0x8, addend: 0x0, symName: __ZNSt3__14pairIP5agentbEC2B8ne180100ERKS2_RKb, symObjAddr: 0x80AC, symBinAddr: 0x10000A7AC, symSize: 0x38 }
  - { offset: 0x16C89, size: 0x8, addend: 0x0, symName: __ZNSt3__19basic_iosIcNS_11char_traitsIcEEEC2B8ne180100Ev, symObjAddr: 0x80E4, symBinAddr: 0x10000A7E4, symSize: 0x3C }
  - { offset: 0x16CB3, size: 0x8, addend: 0x0, symName: __ZNSt3__113basic_ostreamIcNS_11char_traitsIcEEEC2B8ne180100EPNS_15basic_streambufIcS2_EE, symObjAddr: 0x8120, symBinAddr: 0x10000A820, symSize: 0x60 }
  - { offset: 0x16CF8, size: 0x8, addend: 0x0, symName: __ZNSt3__19basic_iosIcNS_11char_traitsIcEEE8setstateB8ne180100Ej, symObjAddr: 0x8180, symBinAddr: 0x10000A880, symSize: 0x2C }
  - { offset: 0x16D2D, size: 0x8, addend: 0x0, symName: __ZNSt3__18ios_baseC2B8ne180100Ev, symObjAddr: 0x81AC, symBinAddr: 0x10000A8AC, symSize: 0x24 }
  - { offset: 0x16D57, size: 0x8, addend: 0x0, symName: __ZNSt3__19basic_iosIcNS_11char_traitsIcEEE4initB8ne180100EPNS_15basic_streambufIcS2_EE, symObjAddr: 0x81D0, symBinAddr: 0x10000A8D0, symSize: 0x44 }
  - { offset: 0x16D8E, size: 0x8, addend: 0x0, symName: __ZNSt3__111char_traitsIcE3eofB8ne180100Ev, symObjAddr: 0x8214, symBinAddr: 0x10000A914, symSize: 0x8 }
  - { offset: 0x16DA2, size: 0x8, addend: 0x0, symName: __ZNSt3__18ios_base8setstateB8ne180100Ej, symObjAddr: 0x821C, symBinAddr: 0x10000A91C, symSize: 0x34 }
  - { offset: 0x16DD9, size: 0x8, addend: 0x0, symName: __ZNKSt3__19basic_iosIcNS_11char_traitsIcEEE4failB8ne180100Ev, symObjAddr: 0x8250, symBinAddr: 0x10000A950, symSize: 0x28 }
  - { offset: 0x16DFF, size: 0x8, addend: 0x0, symName: __ZNKSt3__18ios_base4failB8ne180100Ev, symObjAddr: 0x8278, symBinAddr: 0x10000A978, symSize: 0x28 }
  - { offset: 0x16E27, size: 0x8, addend: 0x0, symName: __ZNSt3__111char_traitsIcE6lengthB8ne180100EPKc, symObjAddr: 0x8494, symBinAddr: 0x10000AB94, symSize: 0x48 }
  - { offset: 0x16E68, size: 0x8, addend: 0x0, symName: __ZNKSt3__113basic_ostreamIcNS_11char_traitsIcEEE6sentrycvbB8ne180100Ev, symObjAddr: 0x84DC, symBinAddr: 0x10000ABDC, symSize: 0x1C }
  - { offset: 0x16E8E, size: 0x8, addend: 0x0, symName: __ZNSt3__119ostreambuf_iteratorIcNS_11char_traitsIcEEEC1B8ne180100ERNS_13basic_ostreamIcS2_EE, symObjAddr: 0x8740, symBinAddr: 0x10000AE40, symSize: 0x34 }
  - { offset: 0x16EC6, size: 0x8, addend: 0x0, symName: __ZNKSt3__18ios_base5flagsB8ne180100Ev, symObjAddr: 0x8774, symBinAddr: 0x10000AE74, symSize: 0x18 }
  - { offset: 0x16EEE, size: 0x8, addend: 0x0, symName: __ZNKSt3__19basic_iosIcNS_11char_traitsIcEEE4fillB8ne180100Ev, symObjAddr: 0x878C, symBinAddr: 0x10000AE8C, symSize: 0x64 }
  - { offset: 0x16F16, size: 0x8, addend: 0x0, symName: __ZNKSt3__119ostreambuf_iteratorIcNS_11char_traitsIcEEE6failedB8ne180100Ev, symObjAddr: 0x87F0, symBinAddr: 0x10000AEF0, symSize: 0x24 }
  - { offset: 0x16F3C, size: 0x8, addend: 0x0, symName: __ZNKSt3__18ios_base5widthB8ne180100Ev, symObjAddr: 0x8814, symBinAddr: 0x10000AF14, symSize: 0x18 }
  - { offset: 0x16F64, size: 0x8, addend: 0x0, symName: __ZNSt3__115basic_streambufIcNS_11char_traitsIcEEE5sputnB8ne180100EPKcl, symObjAddr: 0x882C, symBinAddr: 0x10000AF2C, symSize: 0x3C }
  - { offset: 0x16FA6, size: 0x8, addend: 0x0, symName: __ZNSt3__112basic_stringIcNS_11char_traitsIcEENS_9allocatorIcEEEC1B8ne180100Emc, symObjAddr: 0x8868, symBinAddr: 0x10000AF68, symSize: 0x3C }
  - { offset: 0x16FEE, size: 0x8, addend: 0x0, symName: __ZNKSt3__112basic_stringIcNS_11char_traitsIcEENS_9allocatorIcEEE4dataB8ne180100Ev, symObjAddr: 0x88A4, symBinAddr: 0x10000AFA4, symSize: 0x28 }
  - { offset: 0x17014, size: 0x8, addend: 0x0, symName: __ZNSt3__18ios_base5widthB8ne180100El, symObjAddr: 0x88CC, symBinAddr: 0x10000AFCC, symSize: 0x2C }
  - { offset: 0x1705A, size: 0x8, addend: 0x0, symName: __ZNSt3__112basic_stringIcNS_11char_traitsIcEENS_9allocatorIcEEEC2B8ne180100Emc, symObjAddr: 0x88F8, symBinAddr: 0x10000AFF8, symSize: 0x4C }
  - { offset: 0x170A2, size: 0x8, addend: 0x0, symName: __ZNSt3__117__compressed_pairINS_12basic_stringIcNS_11char_traitsIcEENS_9allocatorIcEEE5__repES5_EC1B8ne180100INS_18__default_init_tagESA_EEOT_OT0_, symObjAddr: 0x8944, symBinAddr: 0x10000B044, symSize: 0x3C }
  - { offset: 0x170FA, size: 0x8, addend: 0x0, symName: __ZNSt3__117__compressed_pairINS_12basic_stringIcNS_11char_traitsIcEENS_9allocatorIcEEE5__repES5_EC2B8ne180100INS_18__default_init_tagESA_EEOT_OT0_, symObjAddr: 0x8980, symBinAddr: 0x10000B080, symSize: 0x3C }
  - { offset: 0x17152, size: 0x8, addend: 0x0, symName: __ZNSt3__122__compressed_pair_elemINS_12basic_stringIcNS_11char_traitsIcEENS_9allocatorIcEEE5__repELi0ELb0EEC2B8ne180100ENS_18__default_init_tagE, symObjAddr: 0x89BC, symBinAddr: 0x10000B0BC, symSize: 0x14 }
  - { offset: 0x17186, size: 0x8, addend: 0x0, symName: __ZNSt3__122__compressed_pair_elemINS_9allocatorIcEELi1ELb1EEC2B8ne180100ENS_18__default_init_tagE, symObjAddr: 0x89D0, symBinAddr: 0x10000B0D0, symSize: 0x2C }
  - { offset: 0x171BA, size: 0x8, addend: 0x0, symName: __ZNSt3__19allocatorIcEC2B8ne180100Ev, symObjAddr: 0x89FC, symBinAddr: 0x10000B0FC, symSize: 0x2C }
  - { offset: 0x171E4, size: 0x8, addend: 0x0, symName: __ZNSt3__116__non_trivial_ifILb1ENS_9allocatorIcEEEC2B8ne180100Ev, symObjAddr: 0x8A28, symBinAddr: 0x10000B128, symSize: 0x14 }
  - { offset: 0x1720E, size: 0x8, addend: 0x0, symName: __ZNKSt3__112basic_stringIcNS_11char_traitsIcEENS_9allocatorIcEEE13__get_pointerB8ne180100Ev, symObjAddr: 0x8A50, symBinAddr: 0x10000B150, symSize: 0x54 }
  - { offset: 0x17234, size: 0x8, addend: 0x0, symName: __ZNKSt3__112basic_stringIcNS_11char_traitsIcEENS_9allocatorIcEEE9__is_longB8ne180100Ev, symObjAddr: 0x8AA4, symBinAddr: 0x10000B1A4, symSize: 0x94 }
  - { offset: 0x1725A, size: 0x8, addend: 0x0, symName: __ZNKSt3__112basic_stringIcNS_11char_traitsIcEENS_9allocatorIcEEE18__get_long_pointerB8ne180100Ev, symObjAddr: 0x8B38, symBinAddr: 0x10000B238, symSize: 0x28 }
  - { offset: 0x17280, size: 0x8, addend: 0x0, symName: __ZNKSt3__112basic_stringIcNS_11char_traitsIcEENS_9allocatorIcEEE19__get_short_pointerB8ne180100Ev, symObjAddr: 0x8B60, symBinAddr: 0x10000B260, symSize: 0x28 }
  - { offset: 0x172A6, size: 0x8, addend: 0x0, symName: __ZNKSt3__117__compressed_pairINS_12basic_stringIcNS_11char_traitsIcEENS_9allocatorIcEEE5__repES5_E5firstB8ne180100Ev, symObjAddr: 0x8B88, symBinAddr: 0x10000B288, symSize: 0x24 }
  - { offset: 0x172CC, size: 0x8, addend: 0x0, symName: __ZNKSt3__122__compressed_pair_elemINS_12basic_stringIcNS_11char_traitsIcEENS_9allocatorIcEEE5__repELi0ELb0EE5__getB8ne180100Ev, symObjAddr: 0x8BAC, symBinAddr: 0x10000B2AC, symSize: 0x14 }
  - { offset: 0x172F2, size: 0x8, addend: 0x0, symName: __ZNSt3__114pointer_traitsIPKcE10pointer_toB8ne180100ERS1_, symObjAddr: 0x8BC0, symBinAddr: 0x10000B2C0, symSize: 0x14 }
  - { offset: 0x17315, size: 0x8, addend: 0x0, symName: __ZNSt3__119ostreambuf_iteratorIcNS_11char_traitsIcEEEC2B8ne180100ERNS_13basic_ostreamIcS2_EE, symObjAddr: 0x8BD4, symBinAddr: 0x10000B2D4, symSize: 0x68 }
  - { offset: 0x1734D, size: 0x8, addend: 0x0, symName: __ZNKSt3__19basic_iosIcNS_11char_traitsIcEEE5rdbufB8ne180100Ev, symObjAddr: 0x8C3C, symBinAddr: 0x10000B33C, symSize: 0x24 }
  - { offset: 0x17375, size: 0x8, addend: 0x0, symName: __ZNKSt3__18ios_base5rdbufB8ne180100Ev, symObjAddr: 0x8C60, symBinAddr: 0x10000B360, symSize: 0x18 }
  - { offset: 0x1739B, size: 0x8, addend: 0x0, symName: __ZNSt3__111char_traitsIcE11eq_int_typeB8ne180100Eii, symObjAddr: 0x8C78, symBinAddr: 0x10000B378, symSize: 0x28 }
  - { offset: 0x173CE, size: 0x8, addend: 0x0, symName: __ZNKSt3__19basic_iosIcNS_11char_traitsIcEEE5widenB8ne180100Ec, symObjAddr: 0x8CA0, symBinAddr: 0x10000B3A0, symSize: 0x8C }
  - { offset: 0x1742D, size: 0x8, addend: 0x0, symName: __ZNKSt3__15ctypeIcE5widenB8ne180100Ec, symObjAddr: 0x8D58, symBinAddr: 0x10000B458, symSize: 0x38 }
  - { offset: 0x17462, size: 0x8, addend: 0x0, symName: __ZNSt3__16__treeINS_12__value_typeIiiEENS_19__map_value_compareIiS2_NS_4lessIiEELb1EEENS_9allocatorIS2_EEE12__find_equalIiEERPNS_16__tree_node_baseIPvEERPNS_15__tree_end_nodeISE_EERKT_, symObjAddr: 0x8DB4, symBinAddr: 0x10000B4B4, symSize: 0x184 }
  - { offset: 0x174CF, size: 0x8, addend: 0x0, symName: __ZNSt3__13mapIiiNS_4lessIiEENS_9allocatorINS_4pairIKiiEEEEE25__construct_node_with_keyERS5_, symObjAddr: 0x8F38, symBinAddr: 0x10000B638, symSize: 0x144 }
  - { offset: 0x17525, size: 0x8, addend: 0x0, symName: __ZNSt3__16__treeINS_12__value_typeIiiEENS_19__map_value_compareIiS2_NS_4lessIiEELb1EEENS_9allocatorIS2_EEE16__insert_node_atEPNS_15__tree_end_nodeIPNS_16__tree_node_baseIPvEEEERSE_SE_, symObjAddr: 0x907C, symBinAddr: 0x10000B77C, symSize: 0xCC }
  - { offset: 0x1757A, size: 0x8, addend: 0x0, symName: __ZNKSt3__110unique_ptrINS_11__tree_nodeINS_12__value_typeIiiEEPvEENS_21__map_node_destructorINS_9allocatorIS5_EEEEE3getB8ne180100Ev, symObjAddr: 0x9148, symBinAddr: 0x10000B848, symSize: 0x28 }
  - { offset: 0x175A0, size: 0x8, addend: 0x0, symName: __ZNSt3__110unique_ptrINS_11__tree_nodeINS_12__value_typeIiiEEPvEENS_21__map_node_destructorINS_9allocatorIS5_EEEEE7releaseB8ne180100Ev, symObjAddr: 0x9170, symBinAddr: 0x10000B870, symSize: 0x44 }
  - { offset: 0x175D5, size: 0x8, addend: 0x0, symName: __ZNSt3__110unique_ptrINS_11__tree_nodeINS_12__value_typeIiiEEPvEENS_21__map_node_destructorINS_9allocatorIS5_EEEEED1B8ne180100Ev, symObjAddr: 0x91B4, symBinAddr: 0x10000B8B4, symSize: 0x2C }
  - { offset: 0x175FF, size: 0x8, addend: 0x0, symName: __ZNKSt3__16__treeINS_12__value_typeIiiEENS_19__map_value_compareIiS2_NS_4lessIiEELb1EEENS_9allocatorIS2_EEE10__root_ptrB8ne180100Ev, symObjAddr: 0x91E0, symBinAddr: 0x10000B8E0, symSize: 0x24 }
  - { offset: 0x17625, size: 0x8, addend: 0x0, symName: __ZNSt3__16__treeINS_12__value_typeIiiEENS_19__map_value_compareIiS2_NS_4lessIiEELb1EEENS_9allocatorIS2_EEE10value_compB8ne180100Ev, symObjAddr: 0x9204, symBinAddr: 0x10000B904, symSize: 0x28 }
  - { offset: 0x1764B, size: 0x8, addend: 0x0, symName: __ZNKSt3__119__map_value_compareIiNS_12__value_typeIiiEENS_4lessIiEELb1EEclB8ne180100ERKiRKS2_, symObjAddr: 0x922C, symBinAddr: 0x10000B92C, symSize: 0x50 }
  - { offset: 0x1768F, size: 0x8, addend: 0x0, symName: __ZNKSt3__119__map_value_compareIiNS_12__value_typeIiiEENS_4lessIiEELb1EEclB8ne180100ERKS2_RKi, symObjAddr: 0x927C, symBinAddr: 0x10000B97C, symSize: 0x48 }
  - { offset: 0x176D3, size: 0x8, addend: 0x0, symName: __ZNSt3__16__treeINS_12__value_typeIiiEENS_19__map_value_compareIiS2_NS_4lessIiEELb1EEENS_9allocatorIS2_EEE10__end_nodeB8ne180100Ev, symObjAddr: 0x92C4, symBinAddr: 0x10000B9C4, symSize: 0x2C }
  - { offset: 0x176F9, size: 0x8, addend: 0x0, symName: __ZNSt3__117__compressed_pairImNS_19__map_value_compareIiNS_12__value_typeIiiEENS_4lessIiEELb1EEEE6secondB8ne180100Ev, symObjAddr: 0x92F0, symBinAddr: 0x10000B9F0, symSize: 0x24 }
  - { offset: 0x1771F, size: 0x8, addend: 0x0, symName: __ZNSt3__122__compressed_pair_elemINS_19__map_value_compareIiNS_12__value_typeIiiEENS_4lessIiEELb1EEELi1ELb1EE5__getB8ne180100Ev, symObjAddr: 0x9314, symBinAddr: 0x10000BA14, symSize: 0x14 }
  - { offset: 0x17745, size: 0x8, addend: 0x0, symName: __ZNKSt3__14lessIiEclB8ne180100ERKiS3_, symObjAddr: 0x9328, symBinAddr: 0x10000BA28, symSize: 0x34 }
  - { offset: 0x17789, size: 0x8, addend: 0x0, symName: __ZNKSt3__112__value_typeIiiE11__get_valueB8ne180100Ev, symObjAddr: 0x935C, symBinAddr: 0x10000BA5C, symSize: 0x14 }
  - { offset: 0x177AF, size: 0x8, addend: 0x0, symName: __ZNSt3__117__compressed_pairINS_15__tree_end_nodeIPNS_16__tree_node_baseIPvEEEENS_9allocatorINS_11__tree_nodeINS_12__value_typeIiiEES3_EEEEE5firstB8ne180100Ev, symObjAddr: 0x9370, symBinAddr: 0x10000BA70, symSize: 0x24 }
  - { offset: 0x177D5, size: 0x8, addend: 0x0, symName: __ZNSt3__122__compressed_pair_elemINS_15__tree_end_nodeIPNS_16__tree_node_baseIPvEEEELi0ELb0EE5__getB8ne180100Ev, symObjAddr: 0x9394, symBinAddr: 0x10000BA94, symSize: 0x14 }
  - { offset: 0x177FB, size: 0x8, addend: 0x0, symName: __ZNSt3__116allocator_traitsINS_9allocatorINS_11__tree_nodeINS_12__value_typeIiiEEPvEEEEE8allocateB8ne180100ERS7_m, symObjAddr: 0x93A8, symBinAddr: 0x10000BAA8, symSize: 0x2C }
  - { offset: 0x1782E, size: 0x8, addend: 0x0, symName: __ZNSt3__121__map_node_destructorINS_9allocatorINS_11__tree_nodeINS_12__value_typeIiiEEPvEEEEEC1B8ne180100ERS7_, symObjAddr: 0x93D4, symBinAddr: 0x10000BAD4, symSize: 0x34 }
  - { offset: 0x1786C, size: 0x8, addend: 0x0, symName: __ZNSt3__110unique_ptrINS_11__tree_nodeINS_12__value_typeIiiEEPvEENS_21__map_node_destructorINS_9allocatorIS5_EEEEEC1B8ne180100ILb1EvEEPS5_NS_16__dependent_typeINS_27__unique_ptr_deleter_sfinaeIS9_EEXT_EE20__good_rval_ref_typeE, symObjAddr: 0x9408, symBinAddr: 0x10000BB08, symSize: 0x3C }
  - { offset: 0x178BD, size: 0x8, addend: 0x0, symName: __ZNSt3__116allocator_traitsINS_9allocatorINS_11__tree_nodeINS_12__value_typeIiiEEPvEEEEE9constructB8ne180100IKiJRSA_EvEEvRS7_PT_DpOT0_, symObjAddr: 0x9444, symBinAddr: 0x10000BB44, symSize: 0x34 }
  - { offset: 0x17914, size: 0x8, addend: 0x0, symName: __ZNKSt3__110unique_ptrINS_11__tree_nodeINS_12__value_typeIiiEEPvEENS_21__map_node_destructorINS_9allocatorIS5_EEEEEptB8ne180100Ev, symObjAddr: 0x9478, symBinAddr: 0x10000BB78, symSize: 0x28 }
  - { offset: 0x1793A, size: 0x8, addend: 0x0, symName: __ZNSt3__110unique_ptrINS_11__tree_nodeINS_12__value_typeIiiEEPvEENS_21__map_node_destructorINS_9allocatorIS5_EEEEE11get_deleterB8ne180100Ev, symObjAddr: 0x94A0, symBinAddr: 0x10000BBA0, symSize: 0x24 }
  - { offset: 0x17960, size: 0x8, addend: 0x0, symName: __ZNSt3__116allocator_traitsINS_9allocatorINS_11__tree_nodeINS_12__value_typeIiiEEPvEEEEE9constructB8ne180100IiJEvEEvRS7_PT_DpOT0_, symObjAddr: 0x94C4, symBinAddr: 0x10000BBC4, symSize: 0x2C }
  - { offset: 0x179A2, size: 0x8, addend: 0x0, symName: __ZNSt3__19allocatorINS_11__tree_nodeINS_12__value_typeIiiEEPvEEE8allocateB8ne180100Em, symObjAddr: 0x94F0, symBinAddr: 0x10000BBF0, symSize: 0x8C }
  - { offset: 0x179E0, size: 0x8, addend: 0x0, symName: __ZNSt3__116allocator_traitsINS_9allocatorINS_11__tree_nodeINS_12__value_typeIiiEEPvEEEEE8max_sizeB8ne180100IS7_vEEmRKS7_, symObjAddr: 0x957C, symBinAddr: 0x10000BC7C, symSize: 0x24 }
  - { offset: 0x17A0E, size: 0x8, addend: 0x0, symName: __ZNKSt3__19allocatorINS_11__tree_nodeINS_12__value_typeIiiEEPvEEE8max_sizeB8ne180100Ev, symObjAddr: 0x95A0, symBinAddr: 0x10000BCA0, symSize: 0x18 }
  - { offset: 0x17A34, size: 0x8, addend: 0x0, symName: __ZNSt3__121__map_node_destructorINS_9allocatorINS_11__tree_nodeINS_12__value_typeIiiEEPvEEEEEC2B8ne180100ERS7_, symObjAddr: 0x95B8, symBinAddr: 0x10000BCB8, symSize: 0x28 }
  - { offset: 0x17A6D, size: 0x8, addend: 0x0, symName: __ZNSt3__110unique_ptrINS_11__tree_nodeINS_12__value_typeIiiEEPvEENS_21__map_node_destructorINS_9allocatorIS5_EEEEEC2B8ne180100ILb1EvEEPS5_NS_16__dependent_typeINS_27__unique_ptr_deleter_sfinaeIS9_EEXT_EE20__good_rval_ref_typeE, symObjAddr: 0x95E0, symBinAddr: 0x10000BCE0, symSize: 0x5C }
  - { offset: 0x17ABE, size: 0x8, addend: 0x0, symName: __ZNSt3__117__compressed_pairIPNS_11__tree_nodeINS_12__value_typeIiiEEPvEENS_21__map_node_destructorINS_9allocatorIS5_EEEEEC1B8ne180100IRS6_SA_EEOT_OT0_, symObjAddr: 0x963C, symBinAddr: 0x10000BD3C, symSize: 0x3C }
  - { offset: 0x17B16, size: 0x8, addend: 0x0, symName: __ZNSt3__117__compressed_pairIPNS_11__tree_nodeINS_12__value_typeIiiEEPvEENS_21__map_node_destructorINS_9allocatorIS5_EEEEEC2B8ne180100IRS6_SA_EEOT_OT0_, symObjAddr: 0x9678, symBinAddr: 0x10000BD78, symSize: 0x48 }
  - { offset: 0x17B6E, size: 0x8, addend: 0x0, symName: __ZNSt3__122__compressed_pair_elemIPNS_11__tree_nodeINS_12__value_typeIiiEEPvEELi0ELb0EEC2B8ne180100IRS6_vEEOT_, symObjAddr: 0x96C0, symBinAddr: 0x10000BDC0, symSize: 0x24 }
  - { offset: 0x17BB0, size: 0x8, addend: 0x0, symName: __ZNSt3__122__compressed_pair_elemINS_21__map_node_destructorINS_9allocatorINS_11__tree_nodeINS_12__value_typeIiiEEPvEEEEEELi1ELb0EEC2B8ne180100IS9_vEEOT_, symObjAddr: 0x96E4, symBinAddr: 0x10000BDE4, symSize: 0x24 }
  - { offset: 0x17BF2, size: 0x8, addend: 0x0, symName: __ZNSt3__19allocatorINS_11__tree_nodeINS_12__value_typeIiiEEPvEEE9constructB8ne180100IKiJRS8_EEEvPT_DpOT0_, symObjAddr: 0x9708, symBinAddr: 0x10000BE08, symSize: 0x28 }
  - { offset: 0x17C48, size: 0x8, addend: 0x0, symName: __ZNKSt3__117__compressed_pairIPNS_11__tree_nodeINS_12__value_typeIiiEEPvEENS_21__map_node_destructorINS_9allocatorIS5_EEEEE5firstB8ne180100Ev, symObjAddr: 0x9730, symBinAddr: 0x10000BE30, symSize: 0x24 }
  - { offset: 0x17C6E, size: 0x8, addend: 0x0, symName: __ZNKSt3__122__compressed_pair_elemIPNS_11__tree_nodeINS_12__value_typeIiiEEPvEELi0ELb0EE5__getB8ne180100Ev, symObjAddr: 0x9754, symBinAddr: 0x10000BE54, symSize: 0x14 }
  - { offset: 0x17C94, size: 0x8, addend: 0x0, symName: __ZNSt3__117__compressed_pairIPNS_11__tree_nodeINS_12__value_typeIiiEEPvEENS_21__map_node_destructorINS_9allocatorIS5_EEEEE6secondB8ne180100Ev, symObjAddr: 0x9768, symBinAddr: 0x10000BE68, symSize: 0x28 }
  - { offset: 0x17CBA, size: 0x8, addend: 0x0, symName: __ZNSt3__122__compressed_pair_elemINS_21__map_node_destructorINS_9allocatorINS_11__tree_nodeINS_12__value_typeIiiEEPvEEEEEELi1ELb0EE5__getB8ne180100Ev, symObjAddr: 0x9790, symBinAddr: 0x10000BE90, symSize: 0x14 }
  - { offset: 0x17CE0, size: 0x8, addend: 0x0, symName: __ZNSt3__19allocatorINS_11__tree_nodeINS_12__value_typeIiiEEPvEEE9constructB8ne180100IiJEEEvPT_DpOT0_, symObjAddr: 0x97A4, symBinAddr: 0x10000BEA4, symSize: 0x1C }
  - { offset: 0x17D22, size: 0x8, addend: 0x0, symName: __ZNSt3__16__treeINS_12__value_typeIiiEENS_19__map_value_compareIiS2_NS_4lessIiEELb1EEENS_9allocatorIS2_EEE12__begin_nodeB8ne180100Ev, symObjAddr: 0x97C0, symBinAddr: 0x10000BEC0, symSize: 0x14 }
  - { offset: 0x17D48, size: 0x8, addend: 0x0, symName: __ZNSt3__16__treeINS_12__value_typeIiiEENS_19__map_value_compareIiS2_NS_4lessIiEELb1EEENS_9allocatorIS2_EEE4sizeB8ne180100Ev, symObjAddr: 0x9B14, symBinAddr: 0x10000C214, symSize: 0x28 }
  - { offset: 0x17D6E, size: 0x8, addend: 0x0, symName: __ZNKSt3__116__tree_node_baseIPvE15__parent_unsafeB8ne180100Ev, symObjAddr: 0x9B3C, symBinAddr: 0x10000C23C, symSize: 0x18 }
  - { offset: 0x17D94, size: 0x8, addend: 0x0, symName: __ZNSt3__116__tree_node_baseIPvE12__set_parentB8ne180100EPS2_, symObjAddr: 0x9D38, symBinAddr: 0x10000C438, symSize: 0x20 }
  - { offset: 0x17DC9, size: 0x8, addend: 0x0, symName: __ZNSt3__117__compressed_pairImNS_19__map_value_compareIiNS_12__value_typeIiiEENS_4lessIiEELb1EEEE5firstB8ne180100Ev, symObjAddr: 0x9D58, symBinAddr: 0x10000C458, symSize: 0x24 }
  - { offset: 0x17DEF, size: 0x8, addend: 0x0, symName: __ZNSt3__122__compressed_pair_elemImLi0ELb0EE5__getB8ne180100Ev, symObjAddr: 0x9D7C, symBinAddr: 0x10000C47C, symSize: 0x14 }
  - { offset: 0x17E15, size: 0x8, addend: 0x0, symName: __ZNSt3__117__compressed_pairIPNS_11__tree_nodeINS_12__value_typeIiiEEPvEENS_21__map_node_destructorINS_9allocatorIS5_EEEEE5firstB8ne180100Ev, symObjAddr: 0x9D90, symBinAddr: 0x10000C490, symSize: 0x24 }
  - { offset: 0x17E3B, size: 0x8, addend: 0x0, symName: __ZNSt3__122__compressed_pair_elemIPNS_11__tree_nodeINS_12__value_typeIiiEEPvEELi0ELb0EE5__getB8ne180100Ev, symObjAddr: 0x9DB4, symBinAddr: 0x10000C4B4, symSize: 0x14 }
  - { offset: 0x17E61, size: 0x8, addend: 0x0, symName: __ZNSt3__110unique_ptrINS_11__tree_nodeINS_12__value_typeIiiEEPvEENS_21__map_node_destructorINS_9allocatorIS5_EEEEED2B8ne180100Ev, symObjAddr: 0x9DC8, symBinAddr: 0x10000C4C8, symSize: 0x30 }
  - { offset: 0x17E8B, size: 0x8, addend: 0x0, symName: __ZNSt3__110unique_ptrINS_11__tree_nodeINS_12__value_typeIiiEEPvEENS_21__map_node_destructorINS_9allocatorIS5_EEEEE5resetB8ne180100EPS5_, symObjAddr: 0x9DF8, symBinAddr: 0x10000C4F8, symSize: 0x78 }
  - { offset: 0x17ECF, size: 0x8, addend: 0x0, symName: __ZNSt3__121__map_node_destructorINS_9allocatorINS_11__tree_nodeINS_12__value_typeIiiEEPvEEEEEclB8ne180100EPS6_, symObjAddr: 0x9E70, symBinAddr: 0x10000C570, symSize: 0xE4 }
  - { offset: 0x17F04, size: 0x8, addend: 0x0, symName: __ZNSt3__116allocator_traitsINS_9allocatorINS_11__tree_nodeINS_12__value_typeIiiEEPvEEEEE7destroyB8ne180100IivvEEvRS7_PT_, symObjAddr: 0x9F54, symBinAddr: 0x10000C654, symSize: 0x28 }
  - { offset: 0x17F3E, size: 0x8, addend: 0x0, symName: __ZNSt3__116allocator_traitsINS_9allocatorINS_11__tree_nodeINS_12__value_typeIiiEEPvEEEEE7destroyB8ne180100IKivvEEvRS7_PT_, symObjAddr: 0x9F7C, symBinAddr: 0x10000C67C, symSize: 0x28 }
  - { offset: 0x17F78, size: 0x8, addend: 0x0, symName: __ZNKSt3__16__lessIvvEclB8ne180100IiiEEbRKT_RKT0_, symObjAddr: 0xA018, symBinAddr: 0x10000C718, symSize: 0x34 }
  - { offset: 0x17FD1, size: 0x8, addend: 0x0, symName: __ZNSt3__16vectorIiNS_9allocatorIiEEE22__construct_one_at_endB8ne180100IJiEEEvDpOT_, symObjAddr: 0xA04C, symBinAddr: 0x10000C74C, symSize: 0x98 }
  - { offset: 0x18020, size: 0x8, addend: 0x0, symName: __ZNSt3__16vectorIiNS_9allocatorIiEEE21__push_back_slow_pathIiEEPiOT_, symObjAddr: 0xA0E4, symBinAddr: 0x10000C7E4, symSize: 0xF0 }
  - { offset: 0x1807E, size: 0x8, addend: 0x0, symName: __ZNSt3__116allocator_traitsINS_9allocatorIiEEE9constructB8ne180100IiJiEvEEvRS2_PT_DpOT0_, symObjAddr: 0xA1D4, symBinAddr: 0x10000C8D4, symSize: 0x34 }
  - { offset: 0x180D5, size: 0x8, addend: 0x0, symName: __ZNSt3__19allocatorIiE9constructB8ne180100IiJiEEEvPT_DpOT0_, symObjAddr: 0xA208, symBinAddr: 0x10000C908, symSize: 0x28 }
  - { offset: 0x1812B, size: 0x8, addend: 0x0, symName: __ZNSt3__114__split_bufferIiRNS_9allocatorIiEEEC1EmmS3_, symObjAddr: 0xA230, symBinAddr: 0x10000C930, symSize: 0x44 }
  - { offset: 0x18181, size: 0x8, addend: 0x0, symName: __ZNSt3__114__split_bufferIiRNS_9allocatorIiEEED1Ev, symObjAddr: 0xA384, symBinAddr: 0x10000CA84, symSize: 0x2C }
  - { offset: 0x181AD, size: 0x8, addend: 0x0, symName: __ZNSt3__114__split_bufferIiRNS_9allocatorIiEEEC2EmmS3_, symObjAddr: 0xA3B0, symBinAddr: 0x10000CAB0, symSize: 0xD4 }
  - { offset: 0x18220, size: 0x8, addend: 0x0, symName: __ZNSt3__117__compressed_pairIPiRNS_9allocatorIiEEEC1B8ne180100IDnS4_EEOT_OT0_, symObjAddr: 0xA484, symBinAddr: 0x10000CB84, symSize: 0x3C }
  - { offset: 0x18278, size: 0x8, addend: 0x0, symName: __ZNSt3__114__split_bufferIiRNS_9allocatorIiEEE7__allocB8ne180100Ev, symObjAddr: 0xA4C0, symBinAddr: 0x10000CBC0, symSize: 0x28 }
  - { offset: 0x1829E, size: 0x8, addend: 0x0, symName: __ZNSt3__114__split_bufferIiRNS_9allocatorIiEEE9__end_capB8ne180100Ev, symObjAddr: 0xA4E8, symBinAddr: 0x10000CBE8, symSize: 0x28 }
  - { offset: 0x182C4, size: 0x8, addend: 0x0, symName: __ZNSt3__117__compressed_pairIPiRNS_9allocatorIiEEEC2B8ne180100IDnS4_EEOT_OT0_, symObjAddr: 0xA510, symBinAddr: 0x10000CC10, symSize: 0x48 }
  - { offset: 0x1831C, size: 0x8, addend: 0x0, symName: __ZNSt3__122__compressed_pair_elemIRNS_9allocatorIiEELi1ELb0EEC2B8ne180100IS3_vEEOT_, symObjAddr: 0xA558, symBinAddr: 0x10000CC58, symSize: 0x20 }
  - { offset: 0x1835E, size: 0x8, addend: 0x0, symName: __ZNSt3__117__compressed_pairIPiRNS_9allocatorIiEEE6secondB8ne180100Ev, symObjAddr: 0xA578, symBinAddr: 0x10000CC78, symSize: 0x28 }
  - { offset: 0x18384, size: 0x8, addend: 0x0, symName: __ZNSt3__122__compressed_pair_elemIRNS_9allocatorIiEELi1ELb0EE5__getB8ne180100Ev, symObjAddr: 0xA5A0, symBinAddr: 0x10000CCA0, symSize: 0x18 }
  - { offset: 0x183AA, size: 0x8, addend: 0x0, symName: __ZNSt3__117__compressed_pairIPiRNS_9allocatorIiEEE5firstB8ne180100Ev, symObjAddr: 0xA5B8, symBinAddr: 0x10000CCB8, symSize: 0x24 }
  - { offset: 0x183F3, size: 0x8, addend: 0x0, symName: __ZNKSt3__111__move_loopINS_17_ClassicAlgPolicyEEclB8ne180100INS_16reverse_iteratorIPiEES6_S6_EENS_4pairIT_T1_EES8_T0_S9_, symObjAddr: 0xAA14, symBinAddr: 0x10000D114, symSize: 0xA0 }
  - { offset: 0x18463, size: 0x8, addend: 0x0, symName: __ZNSt3__18_IterOpsINS_17_ClassicAlgPolicyEE11__iter_moveB8ne180100IRNS_16reverse_iteratorIPiEELi0EEEDTclsr3stdE4movedeclsr3stdE7declvalIRT_EEEEOS8_, symObjAddr: 0xAC14, symBinAddr: 0x10000D314, symSize: 0x28 }
  - { offset: 0x18495, size: 0x8, addend: 0x0, symName: __ZNSt3__18_IterOpsINS_17_ClassicAlgPolicyEE25__validate_iter_referenceB8ne180100IRNS_16reverse_iteratorIPiEEEEvv, symObjAddr: 0xAC3C, symBinAddr: 0x10000D33C, symSize: 0x4 }
  - { offset: 0x184B3, size: 0x8, addend: 0x0, symName: __ZNSt3__118__unwrap_iter_implINS_16reverse_iteratorIPiEELb0EE8__unwrapB8ne180100ES3_, symObjAddr: 0xAC40, symBinAddr: 0x10000D340, symSize: 0x24 }
  - { offset: 0x184D6, size: 0x8, addend: 0x0, symName: __ZNSt3__14pairINS_16reverse_iteratorIPiEES3_EC1B8ne180100ERKS3_S6_, symObjAddr: 0xAC64, symBinAddr: 0x10000D364, symSize: 0x3C }
  - { offset: 0x1851C, size: 0x8, addend: 0x0, symName: __ZNSt3__14pairINS_16reverse_iteratorIPiEES3_EC2B8ne180100ERKS3_S6_, symObjAddr: 0xACA0, symBinAddr: 0x10000D3A0, symSize: 0x34 }
  - { offset: 0x18562, size: 0x8, addend: 0x0, symName: __ZNSt3__118__unwrap_iter_implINS_16reverse_iteratorIPiEELb0EE8__rewrapB8ne180100ES3_S3_, symObjAddr: 0xACD4, symBinAddr: 0x10000D3D4, symSize: 0x2C }
  - { offset: 0x1858F, size: 0x8, addend: 0x0, symName: __ZNSt3__114__split_bufferIiRNS_9allocatorIiEEED2Ev, symObjAddr: 0xAD00, symBinAddr: 0x10000D400, symSize: 0x80 }
  - { offset: 0x185BB, size: 0x8, addend: 0x0, symName: __ZNSt3__114__split_bufferIiRNS_9allocatorIiEEE5clearB8ne180100Ev, symObjAddr: 0xAD80, symBinAddr: 0x10000D480, symSize: 0x28 }
  - { offset: 0x185E1, size: 0x8, addend: 0x0, symName: __ZNKSt3__114__split_bufferIiRNS_9allocatorIiEEE8capacityB8ne180100Ev, symObjAddr: 0xADA8, symBinAddr: 0x10000D4A8, symSize: 0x40 }
  - { offset: 0x18607, size: 0x8, addend: 0x0, symName: __ZNSt3__114__split_bufferIiRNS_9allocatorIiEEE17__destruct_at_endB8ne180100EPi, symObjAddr: 0xADE8, symBinAddr: 0x10000D4E8, symSize: 0x2C }
  - { offset: 0x1863B, size: 0x8, addend: 0x0, symName: __ZNSt3__114__split_bufferIiRNS_9allocatorIiEEE17__destruct_at_endB8ne180100EPiNS_17integral_constantIbLb0EEE, symObjAddr: 0xAE14, symBinAddr: 0x10000D514, symSize: 0x94 }
  - { offset: 0x1867B, size: 0x8, addend: 0x0, symName: __ZNKSt3__114__split_bufferIiRNS_9allocatorIiEEE9__end_capB8ne180100Ev, symObjAddr: 0xAEA8, symBinAddr: 0x10000D5A8, symSize: 0x28 }
  - { offset: 0x186A1, size: 0x8, addend: 0x0, symName: __ZNKSt3__117__compressed_pairIPiRNS_9allocatorIiEEE5firstB8ne180100Ev, symObjAddr: 0xAED0, symBinAddr: 0x10000D5D0, symSize: 0x24 }
  - { offset: 0x186C7, size: 0x8, addend: 0x0, symName: __ZNSt3__113basic_istreamIcNS_11char_traitsIcEEEC2B8ne180100EPNS_15basic_streambufIcS2_EE, symObjAddr: 0xAEF4, symBinAddr: 0x10000D5F4, symSize: 0x64 }
  - { offset: 0x1870C, size: 0x8, addend: 0x0, symName: __ZNSt3__112basic_stringIcNS_11char_traitsIcEENS_9allocatorIcEEEC2B8ne180100Ev, symObjAddr: 0xAF58, symBinAddr: 0x10000D658, symSize: 0x40 }
  - { offset: 0x1873B, size: 0x8, addend: 0x0, symName: __ZNSt3__117__compressed_pairINS_12basic_stringIcNS_11char_traitsIcEENS_9allocatorIcEEE5__repES5_EC1B8ne180100INS_16__value_init_tagENS_18__default_init_tagEEEOT_OT0_, symObjAddr: 0xAF98, symBinAddr: 0x10000D698, symSize: 0x3C }
  - { offset: 0x18793, size: 0x8, addend: 0x0, symName: __ZNKSt3__112basic_stringIcNS_11char_traitsIcEENS_9allocatorIcEEE14__annotate_newB8ne180100Em, symObjAddr: 0xAFD4, symBinAddr: 0x10000D6D4, symSize: 0x14 }
  - { offset: 0x187C8, size: 0x8, addend: 0x0, symName: __ZNSt3__117__compressed_pairINS_12basic_stringIcNS_11char_traitsIcEENS_9allocatorIcEEE5__repES5_EC2B8ne180100INS_16__value_init_tagENS_18__default_init_tagEEEOT_OT0_, symObjAddr: 0xAFE8, symBinAddr: 0x10000D6E8, symSize: 0x3C }
  - { offset: 0x18820, size: 0x8, addend: 0x0, symName: __ZNSt3__122__compressed_pair_elemINS_12basic_stringIcNS_11char_traitsIcEENS_9allocatorIcEEE5__repELi0ELb0EEC2B8ne180100ENS_16__value_init_tagE, symObjAddr: 0xB024, symBinAddr: 0x10000D724, symSize: 0x20 }
  - { offset: 0x18872, size: 0x8, addend: 0x0, symName: __ZNKSt3__113basic_istreamIcNS_11char_traitsIcEEE6sentrycvbB8ne180100Ev, symObjAddr: 0xB044, symBinAddr: 0x10000D744, symSize: 0x1C }
  - { offset: 0x18898, size: 0x8, addend: 0x0, symName: __ZNSt3__112basic_stringIcNS_11char_traitsIcEENS_9allocatorIcEEE5clearB8ne180100Ev, symObjAddr: 0xB060, symBinAddr: 0x10000D760, symSize: 0x94 }
  - { offset: 0x188CF, size: 0x8, addend: 0x0, symName: __ZNKSt3__112basic_stringIcNS_11char_traitsIcEENS_9allocatorIcEEE8max_sizeB8ne180100Ev, symObjAddr: 0xB0F4, symBinAddr: 0x10000D7F4, symSize: 0xAC }
  - { offset: 0x18921, size: 0x8, addend: 0x0, symName: __ZNSt3__115basic_streambufIcNS_11char_traitsIcEEE5sgetcB8ne180100Ev, symObjAddr: 0xB1A0, symBinAddr: 0x10000D8A0, symSize: 0x70 }
  - { offset: 0x18947, size: 0x8, addend: 0x0, symName: __ZNSt3__111char_traitsIcE12to_char_typeB8ne180100Ei, symObjAddr: 0xB210, symBinAddr: 0x10000D910, symSize: 0x18 }
  - { offset: 0x1896B, size: 0x8, addend: 0x0, symName: __ZNKSt3__15ctypeIcE2isB8ne180100Ejc, symObjAddr: 0xB228, symBinAddr: 0x10000D928, symSize: 0x7C }
  - { offset: 0x189AF, size: 0x8, addend: 0x0, symName: __ZNSt3__115basic_streambufIcNS_11char_traitsIcEEE6sbumpcB8ne180100Ev, symObjAddr: 0xB2A4, symBinAddr: 0x10000D9A4, symSize: 0x78 }
  - { offset: 0x189D5, size: 0x8, addend: 0x0, symName: __ZNSt3__18ios_base18__setstate_nothrowB8ne180100Ej, symObjAddr: 0xB31C, symBinAddr: 0x10000DA1C, symSize: 0x64 }
  - { offset: 0x18A0A, size: 0x8, addend: 0x0, symName: __ZNKSt3__19basic_iosIcNS_11char_traitsIcEEE10exceptionsB8ne180100Ev, symObjAddr: 0xB380, symBinAddr: 0x10000DA80, symSize: 0x24 }
  - { offset: 0x18A30, size: 0x8, addend: 0x0, symName: __ZNKSt3__112basic_stringIcNS_11char_traitsIcEENS_9allocatorIcEEE4sizeB8ne180100Ev, symObjAddr: 0xB3A4, symBinAddr: 0x10000DAA4, symSize: 0x54 }
  - { offset: 0x18A56, size: 0x8, addend: 0x0, symName: __ZNSt3__111char_traitsIcE6assignB8ne180100ERcRKc, symObjAddr: 0xB3F8, symBinAddr: 0x10000DAF8, symSize: 0x24 }
  - { offset: 0x18A87, size: 0x8, addend: 0x0, symName: __ZNSt3__112basic_stringIcNS_11char_traitsIcEENS_9allocatorIcEEE18__get_long_pointerB8ne180100Ev, symObjAddr: 0xB41C, symBinAddr: 0x10000DB1C, symSize: 0x28 }
  - { offset: 0x18AAD, size: 0x8, addend: 0x0, symName: __ZNSt3__112basic_stringIcNS_11char_traitsIcEENS_9allocatorIcEEE15__set_long_sizeB8ne180100Em, symObjAddr: 0xB444, symBinAddr: 0x10000DB44, symSize: 0x38 }
  - { offset: 0x18AE2, size: 0x8, addend: 0x0, symName: __ZNSt3__112basic_stringIcNS_11char_traitsIcEENS_9allocatorIcEEE19__get_short_pointerB8ne180100Ev, symObjAddr: 0xB47C, symBinAddr: 0x10000DB7C, symSize: 0x28 }
  - { offset: 0x18B08, size: 0x8, addend: 0x0, symName: __ZNSt3__112basic_stringIcNS_11char_traitsIcEENS_9allocatorIcEEE16__set_short_sizeB8ne180100Em, symObjAddr: 0xB4A4, symBinAddr: 0x10000DBA4, symSize: 0x78 }
  - { offset: 0x18B3D, size: 0x8, addend: 0x0, symName: __ZNKSt3__112basic_stringIcNS_11char_traitsIcEENS_9allocatorIcEEE17__annotate_shrinkB8ne180100Em, symObjAddr: 0xB51C, symBinAddr: 0x10000DC1C, symSize: 0x14 }
  - { offset: 0x18B72, size: 0x8, addend: 0x0, symName: __ZNKSt3__112basic_stringIcNS_11char_traitsIcEENS_9allocatorIcEEE15__get_long_sizeB8ne180100Ev, symObjAddr: 0xB530, symBinAddr: 0x10000DC30, symSize: 0x28 }
  - { offset: 0x18B98, size: 0x8, addend: 0x0, symName: __ZNKSt3__112basic_stringIcNS_11char_traitsIcEENS_9allocatorIcEEE16__get_short_sizeB8ne180100Ev, symObjAddr: 0xB558, symBinAddr: 0x10000DC58, symSize: 0x34 }
  - { offset: 0x18BBE, size: 0x8, addend: 0x0, symName: __ZNSt3__117__compressed_pairINS_12basic_stringIcNS_11char_traitsIcEENS_9allocatorIcEEE5__repES5_E5firstB8ne180100Ev, symObjAddr: 0xB58C, symBinAddr: 0x10000DC8C, symSize: 0x24 }
  - { offset: 0x18BE4, size: 0x8, addend: 0x0, symName: __ZNSt3__122__compressed_pair_elemINS_12basic_stringIcNS_11char_traitsIcEENS_9allocatorIcEEE5__repELi0ELb0EE5__getB8ne180100Ev, symObjAddr: 0xB5B0, symBinAddr: 0x10000DCB0, symSize: 0x14 }
  - { offset: 0x18C0A, size: 0x8, addend: 0x0, symName: __ZNSt3__114pointer_traitsIPcE10pointer_toB8ne180100ERc, symObjAddr: 0xB5C4, symBinAddr: 0x10000DCC4, symSize: 0x14 }
  - { offset: 0x18C37, size: 0x8, addend: 0x0, symName: __ZNSt3__116allocator_traitsINS_9allocatorIcEEE8max_sizeB8ne180100IS2_vEEmRKS2_, symObjAddr: 0xB5D8, symBinAddr: 0x10000DCD8, symSize: 0x24 }
  - { offset: 0x18C65, size: 0x8, addend: 0x0, symName: __ZNKSt3__112basic_stringIcNS_11char_traitsIcEENS_9allocatorIcEEE7__allocB8ne180100Ev, symObjAddr: 0xB5FC, symBinAddr: 0x10000DCFC, symSize: 0x24 }
  - { offset: 0x18C8B, size: 0x8, addend: 0x0, symName: __ZNSt3__114numeric_limitsImE3maxB8ne180100Ev, symObjAddr: 0xB620, symBinAddr: 0x10000DD20, symSize: 0x14 }
  - { offset: 0x18C9F, size: 0x8, addend: 0x0, symName: __ZNKSt3__19allocatorIcE8max_sizeB8ne180100Ev, symObjAddr: 0xB634, symBinAddr: 0x10000DD34, symSize: 0x14 }
  - { offset: 0x18CC5, size: 0x8, addend: 0x0, symName: __ZNKSt3__117__compressed_pairINS_12basic_stringIcNS_11char_traitsIcEENS_9allocatorIcEEE5__repES5_E6secondB8ne180100Ev, symObjAddr: 0xB648, symBinAddr: 0x10000DD48, symSize: 0x24 }
  - { offset: 0x18CEB, size: 0x8, addend: 0x0, symName: __ZNKSt3__122__compressed_pair_elemINS_9allocatorIcEELi1ELb1EE5__getB8ne180100Ev, symObjAddr: 0xB66C, symBinAddr: 0x10000DD6C, symSize: 0x14 }
  - { offset: 0x18D11, size: 0x8, addend: 0x0, symName: __ZNSt3__123__libcpp_numeric_limitsImLb1EE3maxB8ne180100Ev, symObjAddr: 0xB680, symBinAddr: 0x10000DD80, symSize: 0x8 }
  - { offset: 0x18D25, size: 0x8, addend: 0x0, symName: __ZNSt3__111char_traitsIcE11to_int_typeB8ne180100Ec, symObjAddr: 0xB688, symBinAddr: 0x10000DD88, symSize: 0x14 }
  - { offset: 0x18D48, size: 0x8, addend: 0x0, symName: __Z7isasciii, symObjAddr: 0xB69C, symBinAddr: 0x10000DD9C, symSize: 0x24 }
  - { offset: 0x18D75, size: 0x8, addend: 0x0, symName: __ZNKSt3__18ios_base10exceptionsB8ne180100Ev, symObjAddr: 0xB6C0, symBinAddr: 0x10000DDC0, symSize: 0x18 }
  - { offset: 0x18D9D, size: 0x8, addend: 0x0, symName: __ZNSt3__16vectorI5agentNS_9allocatorIS1_EEE9__end_capB8ne180100Ev, symObjAddr: 0xB6D8, symBinAddr: 0x10000DDD8, symSize: 0x28 }
  - { offset: 0x18DC3, size: 0x8, addend: 0x0, symName: __ZNSt3__16vectorI5agentNS_9allocatorIS1_EEE22__construct_one_at_endB8ne180100IJRKS1_EEEvDpOT_, symObjAddr: 0xB700, symBinAddr: 0x10000DE00, symSize: 0x98 }
  - { offset: 0x18E12, size: 0x8, addend: 0x0, symName: __ZNSt3__16vectorI5agentNS_9allocatorIS1_EEE21__push_back_slow_pathIRKS1_EEPS1_OT_, symObjAddr: 0xB798, symBinAddr: 0x10000DE98, symSize: 0xF0 }
  - { offset: 0x18E70, size: 0x8, addend: 0x0, symName: __ZNSt3__117__compressed_pairIP5agentNS_9allocatorIS1_EEE5firstB8ne180100Ev, symObjAddr: 0xB888, symBinAddr: 0x10000DF88, symSize: 0x24 }
  - { offset: 0x18E96, size: 0x8, addend: 0x0, symName: __ZNSt3__122__compressed_pair_elemIP5agentLi0ELb0EE5__getB8ne180100Ev, symObjAddr: 0xB8AC, symBinAddr: 0x10000DFAC, symSize: 0x14 }
  - { offset: 0x18ED5, size: 0x8, addend: 0x0, symName: __ZNSt3__16vectorI5agentNS_9allocatorIS1_EEE21_ConstructTransactionC1B8ne180100ERS4_m, symObjAddr: 0xB8C0, symBinAddr: 0x10000DFC0, symSize: 0x3C }
  - { offset: 0x18F1D, size: 0x8, addend: 0x0, symName: __ZNSt3__116allocator_traitsINS_9allocatorI5agentEEE9constructB8ne180100IS2_JRKS2_EvEEvRS3_PT_DpOT0_, symObjAddr: 0xB8FC, symBinAddr: 0x10000DFFC, symSize: 0x34 }
  - { offset: 0x18F74, size: 0x8, addend: 0x0, symName: __ZNSt3__16vectorI5agentNS_9allocatorIS1_EEE21_ConstructTransactionD1B8ne180100Ev, symObjAddr: 0xB930, symBinAddr: 0x10000E030, symSize: 0x2C }
  - { offset: 0x18F9E, size: 0x8, addend: 0x0, symName: __ZNSt3__16vectorI5agentNS_9allocatorIS1_EEE21_ConstructTransactionC2B8ne180100ERS4_m, symObjAddr: 0xB95C, symBinAddr: 0x10000E05C, symSize: 0x4C }
  - { offset: 0x18FE6, size: 0x8, addend: 0x0, symName: __ZNSt3__19allocatorI5agentE9constructB8ne180100IS1_JRKS1_EEEvPT_DpOT0_, symObjAddr: 0xB9A8, symBinAddr: 0x10000E0A8, symSize: 0x30 }
  - { offset: 0x1903C, size: 0x8, addend: 0x0, symName: __ZNSt3__16vectorI5agentNS_9allocatorIS1_EEE21_ConstructTransactionD2B8ne180100Ev, symObjAddr: 0xB9D8, symBinAddr: 0x10000E0D8, symSize: 0x20 }
  - { offset: 0x19066, size: 0x8, addend: 0x0, symName: __ZNKSt3__16vectorI5agentNS_9allocatorIS1_EEE11__recommendB8ne180100Em, symObjAddr: 0xB9F8, symBinAddr: 0x10000E0F8, symSize: 0xB4 }
  - { offset: 0x190BB, size: 0x8, addend: 0x0, symName: __ZNKSt3__16vectorI5agentNS_9allocatorIS1_EEE4sizeB8ne180100Ev, symObjAddr: 0xBAAC, symBinAddr: 0x10000E1AC, symSize: 0x28 }
  - { offset: 0x190E1, size: 0x8, addend: 0x0, symName: __ZNSt3__114__split_bufferI5agentRNS_9allocatorIS1_EEEC1EmmS4_, symObjAddr: 0xBAD4, symBinAddr: 0x10000E1D4, symSize: 0x44 }
  - { offset: 0x19137, size: 0x8, addend: 0x0, symName: __ZNSt3__114__split_bufferI5agentRNS_9allocatorIS1_EEED1Ev, symObjAddr: 0xBC28, symBinAddr: 0x10000E328, symSize: 0x2C }
  - { offset: 0x19163, size: 0x8, addend: 0x0, symName: __ZNKSt3__16vectorI5agentNS_9allocatorIS1_EEE8max_sizeEv, symObjAddr: 0xBC54, symBinAddr: 0x10000E354, symSize: 0x74 }
  - { offset: 0x1918B, size: 0x8, addend: 0x0, symName: __ZNKSt3__16vectorI5agentNS_9allocatorIS1_EEE20__throw_length_errorB8ne180100Ev, symObjAddr: 0xBCC8, symBinAddr: 0x10000E3C8, symSize: 0x1C }
  - { offset: 0x191BB, size: 0x8, addend: 0x0, symName: __ZNSt3__116allocator_traitsINS_9allocatorI5agentEEE8max_sizeB8ne180100IS3_vEEmRKS3_, symObjAddr: 0xBCE4, symBinAddr: 0x10000E3E4, symSize: 0x24 }
  - { offset: 0x191E9, size: 0x8, addend: 0x0, symName: __ZNKSt3__16vectorI5agentNS_9allocatorIS1_EEE7__allocB8ne180100Ev, symObjAddr: 0xBD08, symBinAddr: 0x10000E408, symSize: 0x28 }
  - { offset: 0x1920F, size: 0x8, addend: 0x0, symName: __ZNKSt3__19allocatorI5agentE8max_sizeB8ne180100Ev, symObjAddr: 0xBD30, symBinAddr: 0x10000E430, symSize: 0x18 }
  - { offset: 0x19235, size: 0x8, addend: 0x0, symName: __ZNKSt3__117__compressed_pairIP5agentNS_9allocatorIS1_EEE6secondB8ne180100Ev, symObjAddr: 0xBD48, symBinAddr: 0x10000E448, symSize: 0x24 }
  - { offset: 0x1925B, size: 0x8, addend: 0x0, symName: __ZNKSt3__122__compressed_pair_elemINS_9allocatorI5agentEELi1ELb1EE5__getB8ne180100Ev, symObjAddr: 0xBD6C, symBinAddr: 0x10000E46C, symSize: 0x14 }
  - { offset: 0x19281, size: 0x8, addend: 0x0, symName: __ZNSt3__114__split_bufferI5agentRNS_9allocatorIS1_EEEC2EmmS4_, symObjAddr: 0xBD80, symBinAddr: 0x10000E480, symSize: 0xE0 }
  - { offset: 0x192F4, size: 0x8, addend: 0x0, symName: __ZNSt3__117__compressed_pairIP5agentRNS_9allocatorIS1_EEEC1B8ne180100IDnS5_EEOT_OT0_, symObjAddr: 0xBE60, symBinAddr: 0x10000E560, symSize: 0x3C }
  - { offset: 0x1934C, size: 0x8, addend: 0x0, symName: __ZNSt3__114__split_bufferI5agentRNS_9allocatorIS1_EEE7__allocB8ne180100Ev, symObjAddr: 0xBEDC, symBinAddr: 0x10000E5DC, symSize: 0x28 }
  - { offset: 0x19372, size: 0x8, addend: 0x0, symName: __ZNSt3__114__split_bufferI5agentRNS_9allocatorIS1_EEE9__end_capB8ne180100Ev, symObjAddr: 0xBF04, symBinAddr: 0x10000E604, symSize: 0x28 }
  - { offset: 0x19398, size: 0x8, addend: 0x0, symName: __ZNSt3__117__compressed_pairIP5agentRNS_9allocatorIS1_EEEC2B8ne180100IDnS5_EEOT_OT0_, symObjAddr: 0xBF2C, symBinAddr: 0x10000E62C, symSize: 0x48 }
  - { offset: 0x193F0, size: 0x8, addend: 0x0, symName: __ZNSt3__122__compressed_pair_elemIRNS_9allocatorI5agentEELi1ELb0EEC2B8ne180100IS4_vEEOT_, symObjAddr: 0xBF74, symBinAddr: 0x10000E674, symSize: 0x20 }
  - { offset: 0x19432, size: 0x8, addend: 0x0, symName: __ZNSt3__19allocatorI5agentE8allocateB8ne180100Em, symObjAddr: 0xBF94, symBinAddr: 0x10000E694, symSize: 0x8C }
  - { offset: 0x19466, size: 0x8, addend: 0x0, symName: __ZNSt3__117__compressed_pairIP5agentRNS_9allocatorIS1_EEE6secondB8ne180100Ev, symObjAddr: 0xC020, symBinAddr: 0x10000E720, symSize: 0x28 }
  - { offset: 0x1948C, size: 0x8, addend: 0x0, symName: __ZNSt3__122__compressed_pair_elemIRNS_9allocatorI5agentEELi1ELb0EE5__getB8ne180100Ev, symObjAddr: 0xC048, symBinAddr: 0x10000E748, symSize: 0x18 }
  - { offset: 0x194B2, size: 0x8, addend: 0x0, symName: __ZNSt3__117__compressed_pairIP5agentRNS_9allocatorIS1_EEE5firstB8ne180100Ev, symObjAddr: 0xC060, symBinAddr: 0x10000E760, symSize: 0x24 }
  - { offset: 0x194D8, size: 0x8, addend: 0x0, symName: __ZNSt3__116reverse_iteratorIP5agentEC1B8ne180100ES2_, symObjAddr: 0xC1B8, symBinAddr: 0x10000E8B8, symSize: 0x34 }
  - { offset: 0x19510, size: 0x8, addend: 0x0, symName: __ZNKSt3__116reverse_iteratorIP5agentE4baseB8ne180100Ev, symObjAddr: 0xC1EC, symBinAddr: 0x10000E8EC, symSize: 0x18 }
  - { offset: 0x19536, size: 0x8, addend: 0x0, symName: __ZNKSt3__16vectorI5agentNS_9allocatorIS1_EEE14__annotate_newB8ne180100Em, symObjAddr: 0xC240, symBinAddr: 0x10000E940, symSize: 0x14 }
  - { offset: 0x1956B, size: 0x8, addend: 0x0, symName: __ZNSt3__129_AllocatorDestroyRangeReverseINS_9allocatorI5agentEENS_16reverse_iteratorIPS2_EEEC1B8ne180100ERS3_RS6_S9_, symObjAddr: 0xC2A0, symBinAddr: 0x10000E9A0, symSize: 0x44 }
  - { offset: 0x195C2, size: 0x8, addend: 0x0, symName: __ZNKSt3__116reverse_iteratorIP5agentEdeB8ne180100Ev, symObjAddr: 0xC350, symBinAddr: 0x10000EA50, symSize: 0x28 }
  - { offset: 0x195F6, size: 0x8, addend: 0x0, symName: __ZNSt3__116reverse_iteratorIP5agentEppB8ne180100Ev, symObjAddr: 0xC378, symBinAddr: 0x10000EA78, symSize: 0x20 }
  - { offset: 0x1961C, size: 0x8, addend: 0x0, symName: __ZNSt3__128__exception_guard_exceptionsINS_29_AllocatorDestroyRangeReverseINS_9allocatorI5agentEENS_16reverse_iteratorIPS3_EEEEE10__completeB8ne180100Ev, symObjAddr: 0xC398, symBinAddr: 0x10000EA98, symSize: 0x1C }
  - { offset: 0x19642, size: 0x8, addend: 0x0, symName: __ZNSt3__128__exception_guard_exceptionsINS_29_AllocatorDestroyRangeReverseINS_9allocatorI5agentEENS_16reverse_iteratorIPS3_EEEEED1B8ne180100Ev, symObjAddr: 0xC3B4, symBinAddr: 0x10000EAB4, symSize: 0x2C }
  - { offset: 0x1966C, size: 0x8, addend: 0x0, symName: __ZNSt3__128__exception_guard_exceptionsINS_29_AllocatorDestroyRangeReverseINS_9allocatorI5agentEENS_16reverse_iteratorIPS3_EEEEEC1B8ne180100ES8_, symObjAddr: 0xC3E0, symBinAddr: 0x10000EAE0, symSize: 0x34 }
  - { offset: 0x196A5, size: 0x8, addend: 0x0, symName: __ZNSt3__128__exception_guard_exceptionsINS_29_AllocatorDestroyRangeReverseINS_9allocatorI5agentEENS_16reverse_iteratorIPS3_EEEEEC2B8ne180100ES8_, symObjAddr: 0xC414, symBinAddr: 0x10000EB14, symSize: 0x30 }
  - { offset: 0x196DE, size: 0x8, addend: 0x0, symName: __ZNSt3__129_AllocatorDestroyRangeReverseINS_9allocatorI5agentEENS_16reverse_iteratorIPS2_EEEC2B8ne180100ERS3_RS6_S9_, symObjAddr: 0xC444, symBinAddr: 0x10000EB44, symSize: 0x38 }
  - { offset: 0x1973A, size: 0x8, addend: 0x0, symName: __ZNSt3__119__to_address_helperINS_16reverse_iteratorIP5agentEEvE6__callB8ne180100ERKS4_, symObjAddr: 0xC47C, symBinAddr: 0x10000EB7C, symSize: 0x4C }
  - { offset: 0x1975D, size: 0x8, addend: 0x0, symName: __ZNKSt3__116reverse_iteratorIP5agentEptB8ne180100Ev, symObjAddr: 0xC4C8, symBinAddr: 0x10000EBC8, symSize: 0x24 }
  - { offset: 0x19783, size: 0x8, addend: 0x0, symName: __ZNSt3__128__exception_guard_exceptionsINS_29_AllocatorDestroyRangeReverseINS_9allocatorI5agentEENS_16reverse_iteratorIPS3_EEEEED2B8ne180100Ev, symObjAddr: 0xC4EC, symBinAddr: 0x10000EBEC, symSize: 0x48 }
  - { offset: 0x197AD, size: 0x8, addend: 0x0, symName: __ZNKSt3__129_AllocatorDestroyRangeReverseINS_9allocatorI5agentEENS_16reverse_iteratorIPS2_EEEclB8ne180100Ev, symObjAddr: 0xC534, symBinAddr: 0x10000EC34, symSize: 0xB4 }
  - { offset: 0x197D4, size: 0x8, addend: 0x0, symName: __ZNSt3__116reverse_iteratorINS0_IP5agentEEEC1B8ne180100ES3_, symObjAddr: 0xC658, symBinAddr: 0x10000ED58, symSize: 0x3C }
  - { offset: 0x1980C, size: 0x8, addend: 0x0, symName: __ZNSt3__116reverse_iteratorINS0_IP5agentEEEppB8ne180100Ev, symObjAddr: 0xC718, symBinAddr: 0x10000EE18, symSize: 0x30 }
  - { offset: 0x19832, size: 0x8, addend: 0x0, symName: __ZNKSt3__116reverse_iteratorINS0_IP5agentEEE4baseB8ne180100Ev, symObjAddr: 0xC748, symBinAddr: 0x10000EE48, symSize: 0x24 }
  - { offset: 0x1985D, size: 0x8, addend: 0x0, symName: __ZNSt3__119__to_address_helperINS_16reverse_iteratorINS1_IP5agentEEEEvE6__callB8ne180100ERKS5_, symObjAddr: 0xC76C, symBinAddr: 0x10000EE6C, symSize: 0x4C }
  - { offset: 0x19880, size: 0x8, addend: 0x0, symName: __ZNKSt3__116reverse_iteratorINS0_IP5agentEEEptB8ne180100Ev, symObjAddr: 0xC7B8, symBinAddr: 0x10000EEB8, symSize: 0x24 }
  - { offset: 0x198A6, size: 0x8, addend: 0x0, symName: __ZNKSt3__116reverse_iteratorINS0_IP5agentEEEdeB8ne180100Ev, symObjAddr: 0xC7DC, symBinAddr: 0x10000EEDC, symSize: 0x34 }
  - { offset: 0x198DA, size: 0x8, addend: 0x0, symName: __ZNSt3__116reverse_iteratorIP5agentEmmB8ne180100Ev, symObjAddr: 0xC810, symBinAddr: 0x10000EF10, symSize: 0x20 }
  - { offset: 0x19900, size: 0x8, addend: 0x0, symName: __ZNSt3__116reverse_iteratorINS0_IP5agentEEEC2B8ne180100ES3_, symObjAddr: 0xC830, symBinAddr: 0x10000EF30, symSize: 0x2C }
  - { offset: 0x19938, size: 0x8, addend: 0x0, symName: __ZNSt3__116reverse_iteratorIP5agentEC2B8ne180100ES2_, symObjAddr: 0xC85C, symBinAddr: 0x10000EF5C, symSize: 0x28 }
  - { offset: 0x19970, size: 0x8, addend: 0x0, symName: __ZNSt3__114__split_bufferI5agentRNS_9allocatorIS1_EEED2Ev, symObjAddr: 0xC884, symBinAddr: 0x10000EF84, symSize: 0x80 }
  - { offset: 0x1999C, size: 0x8, addend: 0x0, symName: __ZNSt3__114__split_bufferI5agentRNS_9allocatorIS1_EEE5clearB8ne180100Ev, symObjAddr: 0xC904, symBinAddr: 0x10000F004, symSize: 0x28 }
  - { offset: 0x199C2, size: 0x8, addend: 0x0, symName: __ZNKSt3__114__split_bufferI5agentRNS_9allocatorIS1_EEE8capacityB8ne180100Ev, symObjAddr: 0xC92C, symBinAddr: 0x10000F02C, symSize: 0x40 }
  - { offset: 0x199E8, size: 0x8, addend: 0x0, symName: __ZNSt3__114__split_bufferI5agentRNS_9allocatorIS1_EEE17__destruct_at_endB8ne180100EPS1_, symObjAddr: 0xC96C, symBinAddr: 0x10000F06C, symSize: 0x2C }
  - { offset: 0x19A1C, size: 0x8, addend: 0x0, symName: __ZNSt3__114__split_bufferI5agentRNS_9allocatorIS1_EEE17__destruct_at_endB8ne180100EPS1_NS_17integral_constantIbLb0EEE, symObjAddr: 0xC998, symBinAddr: 0x10000F098, symSize: 0x94 }
  - { offset: 0x19A5C, size: 0x8, addend: 0x0, symName: __ZNKSt3__114__split_bufferI5agentRNS_9allocatorIS1_EEE9__end_capB8ne180100Ev, symObjAddr: 0xCA2C, symBinAddr: 0x10000F12C, symSize: 0x28 }
  - { offset: 0x19A82, size: 0x8, addend: 0x0, symName: __ZNKSt3__117__compressed_pairIP5agentRNS_9allocatorIS1_EEE5firstB8ne180100Ev, symObjAddr: 0xCA54, symBinAddr: 0x10000F154, symSize: 0x24 }
  - { offset: 0x19AA8, size: 0x8, addend: 0x0, symName: __ZNSt3__16vectorIiNS_9allocatorIiEEE22__construct_one_at_endB8ne180100IJRKiEEEvDpOT_, symObjAddr: 0xCA78, symBinAddr: 0x10000F178, symSize: 0x98 }
  - { offset: 0x19AF7, size: 0x8, addend: 0x0, symName: __ZNSt3__16vectorIiNS_9allocatorIiEEE21__push_back_slow_pathIRKiEEPiOT_, symObjAddr: 0xCB10, symBinAddr: 0x10000F210, symSize: 0xF0 }
  - { offset: 0x19B55, size: 0x8, addend: 0x0, symName: __ZNSt3__116allocator_traitsINS_9allocatorIiEEE9constructB8ne180100IiJRKiEvEEvRS2_PT_DpOT0_, symObjAddr: 0xCC00, symBinAddr: 0x10000F300, symSize: 0x34 }
  - { offset: 0x19BAC, size: 0x8, addend: 0x0, symName: __ZNSt3__19allocatorIiE9constructB8ne180100IiJRKiEEEvPT_DpOT0_, symObjAddr: 0xCC34, symBinAddr: 0x10000F334, symSize: 0x28 }
  - { offset: 0x19C02, size: 0x8, addend: 0x0, symName: __ZNKSt3__16vectorINS_3mapIiiNS_4lessIiEENS_9allocatorINS_4pairIKiiEEEEEENS4_IS9_EEE4sizeB8ne180100Ev, symObjAddr: 0xCC5C, symBinAddr: 0x10000F35C, symSize: 0x28 }
  - { offset: 0x19C28, size: 0x8, addend: 0x0, symName: __ZNSt3__16vectorINS_3mapIiiNS_4lessIiEENS_9allocatorINS_4pairIKiiEEEEEENS4_IS9_EEE8__appendEm, symObjAddr: 0xCC84, symBinAddr: 0x10000F384, symSize: 0x110 }
  - { offset: 0x19C83, size: 0x8, addend: 0x0, symName: __ZNSt3__16vectorINS_3mapIiiNS_4lessIiEENS_9allocatorINS_4pairIKiiEEEEEENS4_IS9_EEE17__destruct_at_endB8ne180100EPS9_, symObjAddr: 0xCD94, symBinAddr: 0x10000F494, symSize: 0x4C }
  - { offset: 0x19CC7, size: 0x8, addend: 0x0, symName: __ZNSt3__16vectorINS_3mapIiiNS_4lessIiEENS_9allocatorINS_4pairIKiiEEEEEENS4_IS9_EEE9__end_capB8ne180100Ev, symObjAddr: 0xCDE0, symBinAddr: 0x10000F4E0, symSize: 0x28 }
  - { offset: 0x19CED, size: 0x8, addend: 0x0, symName: __ZNSt3__16vectorINS_3mapIiiNS_4lessIiEENS_9allocatorINS_4pairIKiiEEEEEENS4_IS9_EEE18__construct_at_endEm, symObjAddr: 0xCE08, symBinAddr: 0x10000F508, symSize: 0xD0 }
  - { offset: 0x19D5F, size: 0x8, addend: 0x0, symName: __ZNKSt3__16vectorINS_3mapIiiNS_4lessIiEENS_9allocatorINS_4pairIKiiEEEEEENS4_IS9_EEE11__recommendB8ne180100Em, symObjAddr: 0xCED8, symBinAddr: 0x10000F5D8, symSize: 0xB4 }
  - { offset: 0x19DB4, size: 0x8, addend: 0x0, symName: __ZNSt3__114__split_bufferINS_3mapIiiNS_4lessIiEENS_9allocatorINS_4pairIKiiEEEEEERNS4_IS9_EEEC1EmmSB_, symObjAddr: 0xCF8C, symBinAddr: 0x10000F68C, symSize: 0x44 }
  - { offset: 0x19E0A, size: 0x8, addend: 0x0, symName: __ZNSt3__114__split_bufferINS_3mapIiiNS_4lessIiEENS_9allocatorINS_4pairIKiiEEEEEERNS4_IS9_EEE18__construct_at_endEm, symObjAddr: 0xCFD0, symBinAddr: 0x10000F6D0, symSize: 0xBC }
  - { offset: 0x19E4D, size: 0x8, addend: 0x0, symName: __ZNSt3__114__split_bufferINS_3mapIiiNS_4lessIiEENS_9allocatorINS_4pairIKiiEEEEEERNS4_IS9_EEED1Ev, symObjAddr: 0xD19C, symBinAddr: 0x10000F89C, symSize: 0x2C }
  - { offset: 0x19E79, size: 0x8, addend: 0x0, symName: __ZNSt3__117__compressed_pairIPNS_3mapIiiNS_4lessIiEENS_9allocatorINS_4pairIKiiEEEEEENS4_IS9_EEE5firstB8ne180100Ev, symObjAddr: 0xD1C8, symBinAddr: 0x10000F8C8, symSize: 0x24 }
  - { offset: 0x19E9F, size: 0x8, addend: 0x0, symName: __ZNSt3__122__compressed_pair_elemIPNS_3mapIiiNS_4lessIiEENS_9allocatorINS_4pairIKiiEEEEEELi0ELb0EE5__getB8ne180100Ev, symObjAddr: 0xD1EC, symBinAddr: 0x10000F8EC, symSize: 0x14 }
  - { offset: 0x19EDE, size: 0x8, addend: 0x0, symName: __ZNSt3__16vectorINS_3mapIiiNS_4lessIiEENS_9allocatorINS_4pairIKiiEEEEEENS4_IS9_EEE21_ConstructTransactionC1B8ne180100ERSB_m, symObjAddr: 0xD200, symBinAddr: 0x10000F900, symSize: 0x3C }
  - { offset: 0x19F26, size: 0x8, addend: 0x0, symName: __ZNSt3__116allocator_traitsINS_9allocatorINS_3mapIiiNS_4lessIiEENS1_INS_4pairIKiiEEEEEEEEE9constructB8ne180100IS9_JEvEEvRSA_PT_DpOT0_, symObjAddr: 0xD23C, symBinAddr: 0x10000F93C, symSize: 0x2C }
  - { offset: 0x19F68, size: 0x8, addend: 0x0, symName: __ZNSt3__16vectorINS_3mapIiiNS_4lessIiEENS_9allocatorINS_4pairIKiiEEEEEENS4_IS9_EEE21_ConstructTransactionD1B8ne180100Ev, symObjAddr: 0xD268, symBinAddr: 0x10000F968, symSize: 0x2C }
  - { offset: 0x19F92, size: 0x8, addend: 0x0, symName: __ZNSt3__16vectorINS_3mapIiiNS_4lessIiEENS_9allocatorINS_4pairIKiiEEEEEENS4_IS9_EEE21_ConstructTransactionC2B8ne180100ERSB_m, symObjAddr: 0xD294, symBinAddr: 0x10000F994, symSize: 0x4C }
  - { offset: 0x19FDA, size: 0x8, addend: 0x0, symName: __ZNSt3__19allocatorINS_3mapIiiNS_4lessIiEENS0_INS_4pairIKiiEEEEEEE9constructB8ne180100IS8_JEEEvPT_DpOT0_, symObjAddr: 0xD2E0, symBinAddr: 0x10000F9E0, symSize: 0x28 }
  - { offset: 0x1A01C, size: 0x8, addend: 0x0, symName: __ZNSt3__13mapIiiNS_4lessIiEENS_9allocatorINS_4pairIKiiEEEEEC1B8ne180100Ev, symObjAddr: 0xD308, symBinAddr: 0x10000FA08, symSize: 0x2C }
  - { offset: 0x1A046, size: 0x8, addend: 0x0, symName: __ZNSt3__13mapIiiNS_4lessIiEENS_9allocatorINS_4pairIKiiEEEEEC2B8ne180100Ev, symObjAddr: 0xD334, symBinAddr: 0x10000FA34, symSize: 0x40 }
  - { offset: 0x1A070, size: 0x8, addend: 0x0, symName: __ZNSt3__119__map_value_compareIiNS_12__value_typeIiiEENS_4lessIiEELb1EEC1B8ne180100ES4_, symObjAddr: 0xD374, symBinAddr: 0x10000FA74, symSize: 0x2C }
  - { offset: 0x1A0A9, size: 0x8, addend: 0x0, symName: __ZNSt3__16__treeINS_12__value_typeIiiEENS_19__map_value_compareIiS2_NS_4lessIiEELb1EEENS_9allocatorIS2_EEEC1ERKS6_, symObjAddr: 0xD3A0, symBinAddr: 0x10000FAA0, symSize: 0x34 }
  - { offset: 0x1A0E4, size: 0x8, addend: 0x0, symName: __ZNSt3__119__map_value_compareIiNS_12__value_typeIiiEENS_4lessIiEELb1EEC2B8ne180100ES4_, symObjAddr: 0xD3D4, symBinAddr: 0x10000FAD4, symSize: 0x14 }
  - { offset: 0x1A11D, size: 0x8, addend: 0x0, symName: __ZNSt3__16__treeINS_12__value_typeIiiEENS_19__map_value_compareIiS2_NS_4lessIiEELb1EEENS_9allocatorIS2_EEEC2ERKS6_, symObjAddr: 0xD3E8, symBinAddr: 0x10000FAE8, symSize: 0x70 }
  - { offset: 0x1A158, size: 0x8, addend: 0x0, symName: __ZNSt3__117__compressed_pairINS_15__tree_end_nodeIPNS_16__tree_node_baseIPvEEEENS_9allocatorINS_11__tree_nodeINS_12__value_typeIiiEES3_EEEEEC1B8ne180100ILb1EvEEv, symObjAddr: 0xD458, symBinAddr: 0x10000FB58, symSize: 0x2C }
  - { offset: 0x1A18D, size: 0x8, addend: 0x0, symName: __ZNSt3__117__compressed_pairImNS_19__map_value_compareIiNS_12__value_typeIiiEENS_4lessIiEELb1EEEEC1B8ne180100IiRKS6_EEOT_OT0_, symObjAddr: 0xD484, symBinAddr: 0x10000FB84, symSize: 0x3C }
  - { offset: 0x1A1E5, size: 0x8, addend: 0x0, symName: __ZNSt3__117__compressed_pairINS_15__tree_end_nodeIPNS_16__tree_node_baseIPvEEEENS_9allocatorINS_11__tree_nodeINS_12__value_typeIiiEES3_EEEEEC2B8ne180100ILb1EvEEv, symObjAddr: 0xD4C0, symBinAddr: 0x10000FBC0, symSize: 0x34 }
  - { offset: 0x1A21A, size: 0x8, addend: 0x0, symName: __ZNSt3__122__compressed_pair_elemINS_15__tree_end_nodeIPNS_16__tree_node_baseIPvEEEELi0ELb0EEC2B8ne180100ENS_16__value_init_tagE, symObjAddr: 0xD4F4, symBinAddr: 0x10000FBF4, symSize: 0x2C }
  - { offset: 0x1A24E, size: 0x8, addend: 0x0, symName: __ZNSt3__122__compressed_pair_elemINS_9allocatorINS_11__tree_nodeINS_12__value_typeIiiEEPvEEEELi1ELb1EEC2B8ne180100ENS_16__value_init_tagE, symObjAddr: 0xD520, symBinAddr: 0x10000FC20, symSize: 0x2C }
  - { offset: 0x1A282, size: 0x8, addend: 0x0, symName: __ZNSt3__115__tree_end_nodeIPNS_16__tree_node_baseIPvEEEC1B8ne180100Ev, symObjAddr: 0xD54C, symBinAddr: 0x10000FC4C, symSize: 0x2C }
  - { offset: 0x1A2AC, size: 0x8, addend: 0x0, symName: __ZNSt3__115__tree_end_nodeIPNS_16__tree_node_baseIPvEEEC2B8ne180100Ev, symObjAddr: 0xD578, symBinAddr: 0x10000FC78, symSize: 0x18 }
  - { offset: 0x1A2D6, size: 0x8, addend: 0x0, symName: __ZNSt3__19allocatorINS_11__tree_nodeINS_12__value_typeIiiEEPvEEEC2B8ne180100Ev, symObjAddr: 0xD590, symBinAddr: 0x10000FC90, symSize: 0x2C }
  - { offset: 0x1A300, size: 0x8, addend: 0x0, symName: __ZNSt3__116__non_trivial_ifILb1ENS_9allocatorINS_11__tree_nodeINS_12__value_typeIiiEEPvEEEEEC2B8ne180100Ev, symObjAddr: 0xD5BC, symBinAddr: 0x10000FCBC, symSize: 0x14 }
  - { offset: 0x1A32A, size: 0x8, addend: 0x0, symName: __ZNSt3__117__compressed_pairImNS_19__map_value_compareIiNS_12__value_typeIiiEENS_4lessIiEELb1EEEEC2B8ne180100IiRKS6_EEOT_OT0_, symObjAddr: 0xD5D0, symBinAddr: 0x10000FCD0, symSize: 0x44 }
  - { offset: 0x1A382, size: 0x8, addend: 0x0, symName: __ZNSt3__122__compressed_pair_elemImLi0ELb0EEC2B8ne180100IivEEOT_, symObjAddr: 0xD614, symBinAddr: 0x10000FD14, symSize: 0x24 }
  - { offset: 0x1A3C4, size: 0x8, addend: 0x0, symName: __ZNSt3__122__compressed_pair_elemINS_19__map_value_compareIiNS_12__value_typeIiiEENS_4lessIiEELb1EEELi1ELb1EEC2B8ne180100IRKS6_vEEOT_, symObjAddr: 0xD638, symBinAddr: 0x10000FD38, symSize: 0x18 }
  - { offset: 0x1A406, size: 0x8, addend: 0x0, symName: __ZNSt3__16vectorINS_3mapIiiNS_4lessIiEENS_9allocatorINS_4pairIKiiEEEEEENS4_IS9_EEE21_ConstructTransactionD2B8ne180100Ev, symObjAddr: 0xD650, symBinAddr: 0x10000FD50, symSize: 0x20 }
  - { offset: 0x1A430, size: 0x8, addend: 0x0, symName: __ZNKSt3__16vectorINS_3mapIiiNS_4lessIiEENS_9allocatorINS_4pairIKiiEEEEEENS4_IS9_EEE8max_sizeEv, symObjAddr: 0xD670, symBinAddr: 0x10000FD70, symSize: 0x74 }
  - { offset: 0x1A458, size: 0x8, addend: 0x0, symName: __ZNKSt3__16vectorINS_3mapIiiNS_4lessIiEENS_9allocatorINS_4pairIKiiEEEEEENS4_IS9_EEE20__throw_length_errorB8ne180100Ev, symObjAddr: 0xD6E4, symBinAddr: 0x10000FDE4, symSize: 0x1C }
  - { offset: 0x1A488, size: 0x8, addend: 0x0, symName: __ZNSt3__116allocator_traitsINS_9allocatorINS_3mapIiiNS_4lessIiEENS1_INS_4pairIKiiEEEEEEEEE8max_sizeB8ne180100ISA_vEEmRKSA_, symObjAddr: 0xD700, symBinAddr: 0x10000FE00, symSize: 0x24 }
  - { offset: 0x1A4B6, size: 0x8, addend: 0x0, symName: __ZNKSt3__16vectorINS_3mapIiiNS_4lessIiEENS_9allocatorINS_4pairIKiiEEEEEENS4_IS9_EEE7__allocB8ne180100Ev, symObjAddr: 0xD724, symBinAddr: 0x10000FE24, symSize: 0x28 }
  - { offset: 0x1A4DC, size: 0x8, addend: 0x0, symName: __ZNKSt3__19allocatorINS_3mapIiiNS_4lessIiEENS0_INS_4pairIKiiEEEEEEE8max_sizeB8ne180100Ev, symObjAddr: 0xD74C, symBinAddr: 0x10000FE4C, symSize: 0x18 }
  - { offset: 0x1A502, size: 0x8, addend: 0x0, symName: __ZNKSt3__117__compressed_pairIPNS_3mapIiiNS_4lessIiEENS_9allocatorINS_4pairIKiiEEEEEENS4_IS9_EEE6secondB8ne180100Ev, symObjAddr: 0xD764, symBinAddr: 0x10000FE64, symSize: 0x24 }
  - { offset: 0x1A528, size: 0x8, addend: 0x0, symName: __ZNKSt3__122__compressed_pair_elemINS_9allocatorINS_3mapIiiNS_4lessIiEENS1_INS_4pairIKiiEEEEEEEELi1ELb1EE5__getB8ne180100Ev, symObjAddr: 0xD788, symBinAddr: 0x10000FE88, symSize: 0x14 }
  - { offset: 0x1A54E, size: 0x8, addend: 0x0, symName: __ZNSt3__114__split_bufferINS_3mapIiiNS_4lessIiEENS_9allocatorINS_4pairIKiiEEEEEERNS4_IS9_EEEC2EmmSB_, symObjAddr: 0xD79C, symBinAddr: 0x10000FE9C, symSize: 0xE0 }
  - { offset: 0x1A5C1, size: 0x8, addend: 0x0, symName: __ZNSt3__117__compressed_pairIPNS_3mapIiiNS_4lessIiEENS_9allocatorINS_4pairIKiiEEEEEERNS4_IS9_EEEC1B8ne180100IDnSC_EEOT_OT0_, symObjAddr: 0xD87C, symBinAddr: 0x10000FF7C, symSize: 0x3C }
  - { offset: 0x1A619, size: 0x8, addend: 0x0, symName: __ZNSt3__114__split_bufferINS_3mapIiiNS_4lessIiEENS_9allocatorINS_4pairIKiiEEEEEERNS4_IS9_EEE7__allocB8ne180100Ev, symObjAddr: 0xD8F8, symBinAddr: 0x10000FFF8, symSize: 0x28 }
  - { offset: 0x1A63F, size: 0x8, addend: 0x0, symName: __ZNSt3__114__split_bufferINS_3mapIiiNS_4lessIiEENS_9allocatorINS_4pairIKiiEEEEEERNS4_IS9_EEE9__end_capB8ne180100Ev, symObjAddr: 0xD920, symBinAddr: 0x100010020, symSize: 0x28 }
  - { offset: 0x1A665, size: 0x8, addend: 0x0, symName: __ZNSt3__117__compressed_pairIPNS_3mapIiiNS_4lessIiEENS_9allocatorINS_4pairIKiiEEEEEERNS4_IS9_EEEC2B8ne180100IDnSC_EEOT_OT0_, symObjAddr: 0xD948, symBinAddr: 0x100010048, symSize: 0x48 }
  - { offset: 0x1A6BD, size: 0x8, addend: 0x0, symName: __ZNSt3__122__compressed_pair_elemIRNS_9allocatorINS_3mapIiiNS_4lessIiEENS1_INS_4pairIKiiEEEEEEEELi1ELb0EEC2B8ne180100ISB_vEEOT_, symObjAddr: 0xD990, symBinAddr: 0x100010090, symSize: 0x20 }
  - { offset: 0x1A6FF, size: 0x8, addend: 0x0, symName: __ZNSt3__19allocatorINS_3mapIiiNS_4lessIiEENS0_INS_4pairIKiiEEEEEEE8allocateB8ne180100Em, symObjAddr: 0xD9B0, symBinAddr: 0x1000100B0, symSize: 0x8C }
  - { offset: 0x1A733, size: 0x8, addend: 0x0, symName: __ZNSt3__117__compressed_pairIPNS_3mapIiiNS_4lessIiEENS_9allocatorINS_4pairIKiiEEEEEERNS4_IS9_EEE6secondB8ne180100Ev, symObjAddr: 0xDA3C, symBinAddr: 0x10001013C, symSize: 0x28 }
  - { offset: 0x1A759, size: 0x8, addend: 0x0, symName: __ZNSt3__122__compressed_pair_elemIRNS_9allocatorINS_3mapIiiNS_4lessIiEENS1_INS_4pairIKiiEEEEEEEELi1ELb0EE5__getB8ne180100Ev, symObjAddr: 0xDA64, symBinAddr: 0x100010164, symSize: 0x18 }
  - { offset: 0x1A77F, size: 0x8, addend: 0x0, symName: __ZNSt3__117__compressed_pairIPNS_3mapIiiNS_4lessIiEENS_9allocatorINS_4pairIKiiEEEEEERNS4_IS9_EEE5firstB8ne180100Ev, symObjAddr: 0xDA7C, symBinAddr: 0x10001017C, symSize: 0x24 }
  - { offset: 0x1A7AF, size: 0x8, addend: 0x0, symName: __ZNSt3__114__split_bufferINS_3mapIiiNS_4lessIiEENS_9allocatorINS_4pairIKiiEEEEEERNS4_IS9_EEE21_ConstructTransactionC1B8ne180100EPPS9_m, symObjAddr: 0xDAA0, symBinAddr: 0x1000101A0, symSize: 0x3C }
  - { offset: 0x1A7F5, size: 0x8, addend: 0x0, symName: __ZNSt3__114__split_bufferINS_3mapIiiNS_4lessIiEENS_9allocatorINS_4pairIKiiEEEEEERNS4_IS9_EEE21_ConstructTransactionD1B8ne180100Ev, symObjAddr: 0xDADC, symBinAddr: 0x1000101DC, symSize: 0x2C }
  - { offset: 0x1A81F, size: 0x8, addend: 0x0, symName: __ZNSt3__114__split_bufferINS_3mapIiiNS_4lessIiEENS_9allocatorINS_4pairIKiiEEEEEERNS4_IS9_EEE21_ConstructTransactionC2B8ne180100EPPS9_m, symObjAddr: 0xDB08, symBinAddr: 0x100010208, symSize: 0x4C }
  - { offset: 0x1A865, size: 0x8, addend: 0x0, symName: __ZNSt3__114__split_bufferINS_3mapIiiNS_4lessIiEENS_9allocatorINS_4pairIKiiEEEEEERNS4_IS9_EEE21_ConstructTransactionD2B8ne180100Ev, symObjAddr: 0xDB54, symBinAddr: 0x100010254, symSize: 0x20 }
  - { offset: 0x1A88F, size: 0x8, addend: 0x0, symName: __ZNSt3__116reverse_iteratorIPNS_3mapIiiNS_4lessIiEENS_9allocatorINS_4pairIKiiEEEEEEEC1B8ne180100ESA_, symObjAddr: 0xDCA8, symBinAddr: 0x1000103A8, symSize: 0x34 }
  - { offset: 0x1A8C7, size: 0x8, addend: 0x0, symName: __ZNKSt3__116reverse_iteratorIPNS_3mapIiiNS_4lessIiEENS_9allocatorINS_4pairIKiiEEEEEEE4baseB8ne180100Ev, symObjAddr: 0xDCDC, symBinAddr: 0x1000103DC, symSize: 0x18 }
  - { offset: 0x1A8ED, size: 0x8, addend: 0x0, symName: __ZNKSt3__16vectorINS_3mapIiiNS_4lessIiEENS_9allocatorINS_4pairIKiiEEEEEENS4_IS9_EEE14__annotate_newB8ne180100Em, symObjAddr: 0xDD30, symBinAddr: 0x100010430, symSize: 0x14 }
  - { offset: 0x1A922, size: 0x8, addend: 0x0, symName: __ZNSt3__129_AllocatorDestroyRangeReverseINS_9allocatorINS_3mapIiiNS_4lessIiEENS1_INS_4pairIKiiEEEEEEEENS_16reverse_iteratorIPS9_EEEC1B8ne180100ERSA_RSD_SG_, symObjAddr: 0xDD90, symBinAddr: 0x100010490, symSize: 0x44 }
  - { offset: 0x1A979, size: 0x8, addend: 0x0, symName: __ZNSt3__116allocator_traitsINS_9allocatorINS_3mapIiiNS_4lessIiEENS1_INS_4pairIKiiEEEEEEEEE9constructB8ne180100IS9_JRKS9_EvEEvRSA_PT_DpOT0_, symObjAddr: 0xDE1C, symBinAddr: 0x10001051C, symSize: 0x34 }
  - { offset: 0x1A9D0, size: 0x8, addend: 0x0, symName: __ZNKSt3__116reverse_iteratorIPNS_3mapIiiNS_4lessIiEENS_9allocatorINS_4pairIKiiEEEEEEEdeB8ne180100Ev, symObjAddr: 0xDE74, symBinAddr: 0x100010574, symSize: 0x28 }
  - { offset: 0x1AA04, size: 0x8, addend: 0x0, symName: __ZNSt3__116reverse_iteratorIPNS_3mapIiiNS_4lessIiEENS_9allocatorINS_4pairIKiiEEEEEEEppB8ne180100Ev, symObjAddr: 0xDE9C, symBinAddr: 0x10001059C, symSize: 0x20 }
  - { offset: 0x1AA2A, size: 0x8, addend: 0x0, symName: __ZNSt3__128__exception_guard_exceptionsINS_29_AllocatorDestroyRangeReverseINS_9allocatorINS_3mapIiiNS_4lessIiEENS2_INS_4pairIKiiEEEEEEEENS_16reverse_iteratorIPSA_EEEEE10__completeB8ne180100Ev, symObjAddr: 0xDEBC, symBinAddr: 0x1000105BC, symSize: 0x1C }
  - { offset: 0x1AA50, size: 0x8, addend: 0x0, symName: __ZNSt3__128__exception_guard_exceptionsINS_29_AllocatorDestroyRangeReverseINS_9allocatorINS_3mapIiiNS_4lessIiEENS2_INS_4pairIKiiEEEEEEEENS_16reverse_iteratorIPSA_EEEEED1B8ne180100Ev, symObjAddr: 0xDED8, symBinAddr: 0x1000105D8, symSize: 0x2C }
  - { offset: 0x1AA7A, size: 0x8, addend: 0x0, symName: __ZNSt3__128__exception_guard_exceptionsINS_29_AllocatorDestroyRangeReverseINS_9allocatorINS_3mapIiiNS_4lessIiEENS2_INS_4pairIKiiEEEEEEEENS_16reverse_iteratorIPSA_EEEEEC1B8ne180100ESF_, symObjAddr: 0xDF04, symBinAddr: 0x100010604, symSize: 0x34 }
  - { offset: 0x1AAB3, size: 0x8, addend: 0x0, symName: __ZNSt3__128__exception_guard_exceptionsINS_29_AllocatorDestroyRangeReverseINS_9allocatorINS_3mapIiiNS_4lessIiEENS2_INS_4pairIKiiEEEEEEEENS_16reverse_iteratorIPSA_EEEEEC2B8ne180100ESF_, symObjAddr: 0xDF38, symBinAddr: 0x100010638, symSize: 0x30 }
  - { offset: 0x1AAEC, size: 0x8, addend: 0x0, symName: __ZNSt3__129_AllocatorDestroyRangeReverseINS_9allocatorINS_3mapIiiNS_4lessIiEENS1_INS_4pairIKiiEEEEEEEENS_16reverse_iteratorIPS9_EEEC2B8ne180100ERSA_RSD_SG_, symObjAddr: 0xDF68, symBinAddr: 0x100010668, symSize: 0x38 }
  - { offset: 0x1AB43, size: 0x8, addend: 0x0, symName: __ZNSt3__19allocatorINS_3mapIiiNS_4lessIiEENS0_INS_4pairIKiiEEEEEEE9constructB8ne180100IS8_JRKS8_EEEvPT_DpOT0_, symObjAddr: 0xDFA0, symBinAddr: 0x1000106A0, symSize: 0x30 }
  - { offset: 0x1AB99, size: 0x8, addend: 0x0, symName: __ZNSt3__13mapIiiNS_4lessIiEENS_9allocatorINS_4pairIKiiEEEEEC1B8ne180100ERKS8_, symObjAddr: 0xDFD0, symBinAddr: 0x1000106D0, symSize: 0x34 }
  - { offset: 0x1ABD2, size: 0x8, addend: 0x0, symName: __ZNSt3__13mapIiiNS_4lessIiEENS_9allocatorINS_4pairIKiiEEEEEC2B8ne180100ERKS8_, symObjAddr: 0xE004, symBinAddr: 0x100010704, symSize: 0x90 }
  - { offset: 0x1AC0B, size: 0x8, addend: 0x0, symName: __ZNSt3__16__treeINS_12__value_typeIiiEENS_19__map_value_compareIiS2_NS_4lessIiEELb1EEENS_9allocatorIS2_EEEC1ERKS9_, symObjAddr: 0xE094, symBinAddr: 0x100010794, symSize: 0x34 }
  - { offset: 0x1AC46, size: 0x8, addend: 0x0, symName: __ZNSt3__13mapIiiNS_4lessIiEENS_9allocatorINS_4pairIKiiEEEEE6insertB8ne180100INS_20__map_const_iteratorINS_21__tree_const_iteratorINS_12__value_typeIiiEEPNS_11__tree_nodeISD_PvEElEEEEEEvT_SK_, symObjAddr: 0xE0C8, symBinAddr: 0x1000107C8, symSize: 0x8C }
  - { offset: 0x1ACB0, size: 0x8, addend: 0x0, symName: __ZNKSt3__13mapIiiNS_4lessIiEENS_9allocatorINS_4pairIKiiEEEEE5beginB8ne180100Ev, symObjAddr: 0xE154, symBinAddr: 0x100010854, symSize: 0x38 }
  - { offset: 0x1ACD6, size: 0x8, addend: 0x0, symName: __ZNKSt3__13mapIiiNS_4lessIiEENS_9allocatorINS_4pairIKiiEEEEE3endB8ne180100Ev, symObjAddr: 0xE18C, symBinAddr: 0x10001088C, symSize: 0x38 }
  - { offset: 0x1ACFC, size: 0x8, addend: 0x0, symName: __ZNSt3__16__treeINS_12__value_typeIiiEENS_19__map_value_compareIiS2_NS_4lessIiEELb1EEENS_9allocatorIS2_EEEC2ERKS9_, symObjAddr: 0xE1C4, symBinAddr: 0x1000108C4, symSize: 0x9C }
  - { offset: 0x1AD37, size: 0x8, addend: 0x0, symName: __ZNSt3__116allocator_traitsINS_9allocatorINS_11__tree_nodeINS_12__value_typeIiiEEPvEEEEE37select_on_container_copy_constructionB8ne180100IS7_vvEES7_RKS7_, symObjAddr: 0xE260, symBinAddr: 0x100010960, symSize: 0x10 }
  - { offset: 0x1AD66, size: 0x8, addend: 0x0, symName: __ZNKSt3__16__treeINS_12__value_typeIiiEENS_19__map_value_compareIiS2_NS_4lessIiEELb1EEENS_9allocatorIS2_EEE12__node_allocB8ne180100Ev, symObjAddr: 0xE270, symBinAddr: 0x100010970, symSize: 0x28 }
  - { offset: 0x1AD91, size: 0x8, addend: 0x0, symName: __ZNSt3__117__compressed_pairINS_15__tree_end_nodeIPNS_16__tree_node_baseIPvEEEENS_9allocatorINS_11__tree_nodeINS_12__value_typeIiiEES3_EEEEEC1B8ne180100INS_18__default_init_tagESC_EEOT_OT0_, symObjAddr: 0xE298, symBinAddr: 0x100010998, symSize: 0x3C }
  - { offset: 0x1ADE9, size: 0x8, addend: 0x0, symName: __ZNKSt3__16__treeINS_12__value_typeIiiEENS_19__map_value_compareIiS2_NS_4lessIiEELb1EEENS_9allocatorIS2_EEE10value_compB8ne180100Ev, symObjAddr: 0xE2D4, symBinAddr: 0x1000109D4, symSize: 0x28 }
  - { offset: 0x1AE0F, size: 0x8, addend: 0x0, symName: __ZNKSt3__117__compressed_pairINS_15__tree_end_nodeIPNS_16__tree_node_baseIPvEEEENS_9allocatorINS_11__tree_nodeINS_12__value_typeIiiEES3_EEEEE6secondB8ne180100Ev, symObjAddr: 0xE2FC, symBinAddr: 0x1000109FC, symSize: 0x24 }
  - { offset: 0x1AE35, size: 0x8, addend: 0x0, symName: __ZNKSt3__122__compressed_pair_elemINS_9allocatorINS_11__tree_nodeINS_12__value_typeIiiEEPvEEEELi1ELb1EE5__getB8ne180100Ev, symObjAddr: 0xE320, symBinAddr: 0x100010A20, symSize: 0x14 }
  - { offset: 0x1AE5B, size: 0x8, addend: 0x0, symName: __ZNSt3__117__compressed_pairINS_15__tree_end_nodeIPNS_16__tree_node_baseIPvEEEENS_9allocatorINS_11__tree_nodeINS_12__value_typeIiiEES3_EEEEEC2B8ne180100INS_18__default_init_tagESC_EEOT_OT0_, symObjAddr: 0xE334, symBinAddr: 0x100010A34, symSize: 0x40 }
  - { offset: 0x1AEB3, size: 0x8, addend: 0x0, symName: __ZNSt3__122__compressed_pair_elemINS_15__tree_end_nodeIPNS_16__tree_node_baseIPvEEEELi0ELb0EEC2B8ne180100ENS_18__default_init_tagE, symObjAddr: 0xE374, symBinAddr: 0x100010A74, symSize: 0x2C }
  - { offset: 0x1AEE7, size: 0x8, addend: 0x0, symName: __ZNSt3__122__compressed_pair_elemINS_9allocatorINS_11__tree_nodeINS_12__value_typeIiiEEPvEEEELi1ELb1EEC2B8ne180100IS7_vEEOT_, symObjAddr: 0xE3A0, symBinAddr: 0x100010AA0, symSize: 0x18 }
  - { offset: 0x1AF29, size: 0x8, addend: 0x0, symName: __ZNKSt3__117__compressed_pairImNS_19__map_value_compareIiNS_12__value_typeIiiEENS_4lessIiEELb1EEEE6secondB8ne180100Ev, symObjAddr: 0xE3B8, symBinAddr: 0x100010AB8, symSize: 0x24 }
  - { offset: 0x1AF4F, size: 0x8, addend: 0x0, symName: __ZNKSt3__122__compressed_pair_elemINS_19__map_value_compareIiNS_12__value_typeIiiEENS_4lessIiEELb1EEELi1ELb1EE5__getB8ne180100Ev, symObjAddr: 0xE3DC, symBinAddr: 0x100010ADC, symSize: 0x14 }
  - { offset: 0x1AF75, size: 0x8, addend: 0x0, symName: __ZNKSt3__13mapIiiNS_4lessIiEENS_9allocatorINS_4pairIKiiEEEEE4cendB8ne180100Ev, symObjAddr: 0xE3F0, symBinAddr: 0x100010AF0, symSize: 0x2C }
  - { offset: 0x1AF9B, size: 0x8, addend: 0x0, symName: __ZNSt3__13mapIiiNS_4lessIiEENS_9allocatorINS_4pairIKiiEEEEE6insertB8ne180100ENS_20__map_const_iteratorINS_21__tree_const_iteratorINS_12__value_typeIiiEEPNS_11__tree_nodeISC_PvEElEEEERKS6_, symObjAddr: 0xE44C, symBinAddr: 0x100010B4C, symSize: 0x50 }
  - { offset: 0x1AFDF, size: 0x8, addend: 0x0, symName: __ZNSt3__120__map_const_iteratorINS_21__tree_const_iteratorINS_12__value_typeIiiEEPNS_11__tree_nodeIS3_PvEElEEEC1B8ne180100ES8_, symObjAddr: 0xE49C, symBinAddr: 0x100010B9C, symSize: 0x34 }
  - { offset: 0x1B018, size: 0x8, addend: 0x0, symName: __ZNKSt3__120__map_const_iteratorINS_21__tree_const_iteratorINS_12__value_typeIiiEEPNS_11__tree_nodeIS3_PvEElEEEdeB8ne180100Ev, symObjAddr: 0xE4D0, symBinAddr: 0x100010BD0, symSize: 0x28 }
  - { offset: 0x1B03E, size: 0x8, addend: 0x0, symName: __ZNSt3__120__map_const_iteratorINS_21__tree_const_iteratorINS_12__value_typeIiiEEPNS_11__tree_nodeIS3_PvEElEEEppB8ne180100Ev, symObjAddr: 0xE4F8, symBinAddr: 0x100010BF8, symSize: 0x2C }
  - { offset: 0x1B064, size: 0x8, addend: 0x0, symName: __ZNSt3__16__treeINS_12__value_typeIiiEENS_19__map_value_compareIiS2_NS_4lessIiEELb1EEENS_9allocatorIS2_EEE15__insert_uniqueB8ne180100ENS_21__tree_const_iteratorIS2_PNS_11__tree_nodeIS2_PvEElEERKNS_4pairIKiiEE, symObjAddr: 0xE588, symBinAddr: 0x100010C88, symSize: 0x64 }
  - { offset: 0x1B0A8, size: 0x8, addend: 0x0, symName: __ZNSt3__114__map_iteratorINS_15__tree_iteratorINS_12__value_typeIiiEEPNS_11__tree_nodeIS3_PvEElEEEC1B8ne180100ES8_, symObjAddr: 0xE5EC, symBinAddr: 0x100010CEC, symSize: 0x34 }
  - { offset: 0x1B0E1, size: 0x8, addend: 0x0, symName: __ZNSt3__16__treeINS_12__value_typeIiiEENS_19__map_value_compareIiS2_NS_4lessIiEELb1EEENS_9allocatorIS2_EEE30__emplace_hint_unique_key_argsIiJRKNS_4pairIKiiEEEEENSB_INS_15__tree_iteratorIS2_PNS_11__tree_nodeIS2_PvEElEEbEENS_21__tree_const_iteratorIS2_SK_lEERKT_DpOT0_, symObjAddr: 0xE620, symBinAddr: 0x100010D20, symSize: 0x104 }
  - { offset: 0x1B1AD, size: 0x8, addend: 0x0, symName: __ZNSt3__122__tree_key_value_typesINS_12__value_typeIiiEEE9__get_keyB8ne180100IKNS_4pairIKiiEELi0EEERS6_RT_, symObjAddr: 0xE724, symBinAddr: 0x100010E24, symSize: 0x14 }
  - { offset: 0x1B1E0, size: 0x8, addend: 0x0, symName: __ZNSt3__16__treeINS_12__value_typeIiiEENS_19__map_value_compareIiS2_NS_4lessIiEELb1EEENS_9allocatorIS2_EEE12__find_equalIiEERPNS_16__tree_node_baseIPvEENS_21__tree_const_iteratorIS2_PNS_11__tree_nodeIS2_SC_EElEERPNS_15__tree_end_nodeISE_EESF_RKT_, symObjAddr: 0xE738, symBinAddr: 0x100010E38, symSize: 0x304 }
  - { offset: 0x1B289, size: 0x8, addend: 0x0, symName: __ZNSt3__16__treeINS_12__value_typeIiiEENS_19__map_value_compareIiS2_NS_4lessIiEELb1EEENS_9allocatorIS2_EEE16__construct_nodeIJRKNS_4pairIKiiEEEEENS_10unique_ptrINS_11__tree_nodeIS2_PvEENS_22__tree_node_destructorINS7_ISJ_EEEEEEDpOT_, symObjAddr: 0xEA3C, symBinAddr: 0x10001113C, symSize: 0x118 }
  - { offset: 0x1B2EA, size: 0x8, addend: 0x0, symName: __ZNKSt3__110unique_ptrINS_11__tree_nodeINS_12__value_typeIiiEEPvEENS_22__tree_node_destructorINS_9allocatorIS5_EEEEE3getB8ne180100Ev, symObjAddr: 0xEB54, symBinAddr: 0x100011254, symSize: 0x28 }
  - { offset: 0x1B310, size: 0x8, addend: 0x0, symName: __ZNSt3__110unique_ptrINS_11__tree_nodeINS_12__value_typeIiiEEPvEENS_22__tree_node_destructorINS_9allocatorIS5_EEEEE7releaseB8ne180100Ev, symObjAddr: 0xEB7C, symBinAddr: 0x10001127C, symSize: 0x44 }
  - { offset: 0x1B345, size: 0x8, addend: 0x0, symName: __ZNSt3__110unique_ptrINS_11__tree_nodeINS_12__value_typeIiiEEPvEENS_22__tree_node_destructorINS_9allocatorIS5_EEEEED1B8ne180100Ev, symObjAddr: 0xEBC0, symBinAddr: 0x1000112C0, symSize: 0x2C }
  - { offset: 0x1B36F, size: 0x8, addend: 0x0, symName: __ZNSt3__115__tree_iteratorINS_12__value_typeIiiEEPNS_11__tree_nodeIS2_PvEElEC1B8ne180100ES6_, symObjAddr: 0xEBEC, symBinAddr: 0x1000112EC, symSize: 0x34 }
  - { offset: 0x1B3A8, size: 0x8, addend: 0x0, symName: __ZNSt3__14pairINS_15__tree_iteratorINS_12__value_typeIiiEEPNS_11__tree_nodeIS3_PvEElEEbEC1B8ne180100ERKS8_RKb, symObjAddr: 0xEC20, symBinAddr: 0x100011320, symSize: 0x3C }
  - { offset: 0x1B3EE, size: 0x8, addend: 0x0, symName: __ZNSt3__16__treeINS_12__value_typeIiiEENS_19__map_value_compareIiS2_NS_4lessIiEELb1EEENS_9allocatorIS2_EEE3endB8ne180100Ev, symObjAddr: 0xEC5C, symBinAddr: 0x10001135C, symSize: 0x34 }
  - { offset: 0x1B414, size: 0x8, addend: 0x0, symName: __ZNSt3__121__tree_const_iteratorINS_12__value_typeIiiEEPNS_11__tree_nodeIS2_PvEElEC1B8ne180100ENS_15__tree_iteratorIS2_S6_lEE, symObjAddr: 0xEC90, symBinAddr: 0x100011390, symSize: 0x34 }
  - { offset: 0x1B44D, size: 0x8, addend: 0x0, symName: __ZNKSt3__121__tree_const_iteratorINS_12__value_typeIiiEEPNS_11__tree_nodeIS2_PvEElEdeB8ne180100Ev, symObjAddr: 0xECC4, symBinAddr: 0x1000113C4, symSize: 0x28 }
  - { offset: 0x1B473, size: 0x8, addend: 0x0, symName: __ZNSt3__16__treeINS_12__value_typeIiiEENS_19__map_value_compareIiS2_NS_4lessIiEELb1EEENS_9allocatorIS2_EEE5beginB8ne180100Ev, symObjAddr: 0xECEC, symBinAddr: 0x1000113EC, symSize: 0x34 }
  - { offset: 0x1B499, size: 0x8, addend: 0x0, symName: __ZNSt3__121__tree_const_iteratorINS_12__value_typeIiiEEPNS_11__tree_nodeIS2_PvEElEmmB8ne180100Ev, symObjAddr: 0xED20, symBinAddr: 0x100011420, symSize: 0x38 }
  - { offset: 0x1B4BF, size: 0x8, addend: 0x0, symName: __ZNKSt3__121__tree_const_iteratorINS_12__value_typeIiiEEPNS_11__tree_nodeIS2_PvEElE8__get_npB8ne180100Ev, symObjAddr: 0xED94, symBinAddr: 0x100011494, symSize: 0x18 }
  - { offset: 0x1B4E5, size: 0x8, addend: 0x0, symName: __ZNSt3__115__tree_iteratorINS_12__value_typeIiiEEPNS_11__tree_nodeIS2_PvEElEC1B8ne180100EPNS_15__tree_end_nodeIPNS_16__tree_node_baseIS4_EEEE, symObjAddr: 0xEDAC, symBinAddr: 0x1000114AC, symSize: 0x34 }
  - { offset: 0x1B51E, size: 0x8, addend: 0x0, symName: __ZNSt3__115__tree_iteratorINS_12__value_typeIiiEEPNS_11__tree_nodeIS2_PvEElEC2B8ne180100EPNS_15__tree_end_nodeIPNS_16__tree_node_baseIS4_EEEE, symObjAddr: 0xEDE0, symBinAddr: 0x1000114E0, symSize: 0x20 }
  - { offset: 0x1B557, size: 0x8, addend: 0x0, symName: __ZNSt3__121__tree_const_iteratorINS_12__value_typeIiiEEPNS_11__tree_nodeIS2_PvEElEC2B8ne180100ENS_15__tree_iteratorIS2_S6_lEE, symObjAddr: 0xEE00, symBinAddr: 0x100011500, symSize: 0x20 }
  - { offset: 0x1B590, size: 0x8, addend: 0x0, symName: __ZNSt3__121__tree_const_iteratorINS_12__value_typeIiiEEPNS_11__tree_nodeIS2_PvEElEppB8ne180100Ev, symObjAddr: 0xEFC4, symBinAddr: 0x1000116C4, symSize: 0x38 }
  - { offset: 0x1B5B6, size: 0x8, addend: 0x0, symName: __ZNSt3__122__tree_node_destructorINS_9allocatorINS_11__tree_nodeINS_12__value_typeIiiEEPvEEEEEC1B8ne180100ERS7_b, symObjAddr: 0xF0BC, symBinAddr: 0x1000117BC, symSize: 0x48 }
  - { offset: 0x1B603, size: 0x8, addend: 0x0, symName: __ZNSt3__110unique_ptrINS_11__tree_nodeINS_12__value_typeIiiEEPvEENS_22__tree_node_destructorINS_9allocatorIS5_EEEEEC1B8ne180100ILb1EvEEPS5_NS_16__dependent_typeINS_27__unique_ptr_deleter_sfinaeIS9_EEXT_EE20__good_rval_ref_typeE, symObjAddr: 0xF104, symBinAddr: 0x100011804, symSize: 0x3C }
  - { offset: 0x1B654, size: 0x8, addend: 0x0, symName: __ZNSt3__116allocator_traitsINS_9allocatorINS_11__tree_nodeINS_12__value_typeIiiEEPvEEEEE9constructB8ne180100INS_4pairIKiiEEJRKSC_EvEEvRS7_PT_DpOT0_, symObjAddr: 0xF140, symBinAddr: 0x100011840, symSize: 0x34 }
  - { offset: 0x1B6AB, size: 0x8, addend: 0x0, symName: __ZNKSt3__110unique_ptrINS_11__tree_nodeINS_12__value_typeIiiEEPvEENS_22__tree_node_destructorINS_9allocatorIS5_EEEEEptB8ne180100Ev, symObjAddr: 0xF174, symBinAddr: 0x100011874, symSize: 0x28 }
  - { offset: 0x1B6D1, size: 0x8, addend: 0x0, symName: __ZNSt3__110unique_ptrINS_11__tree_nodeINS_12__value_typeIiiEEPvEENS_22__tree_node_destructorINS_9allocatorIS5_EEEEE11get_deleterB8ne180100Ev, symObjAddr: 0xF19C, symBinAddr: 0x10001189C, symSize: 0x24 }
  - { offset: 0x1B6F7, size: 0x8, addend: 0x0, symName: __ZNSt3__122__tree_node_destructorINS_9allocatorINS_11__tree_nodeINS_12__value_typeIiiEEPvEEEEEC2B8ne180100ERS7_b, symObjAddr: 0xF1C0, symBinAddr: 0x1000118C0, symSize: 0x38 }
  - { offset: 0x1B73F, size: 0x8, addend: 0x0, symName: __ZNSt3__110unique_ptrINS_11__tree_nodeINS_12__value_typeIiiEEPvEENS_22__tree_node_destructorINS_9allocatorIS5_EEEEEC2B8ne180100ILb1EvEEPS5_NS_16__dependent_typeINS_27__unique_ptr_deleter_sfinaeIS9_EEXT_EE20__good_rval_ref_typeE, symObjAddr: 0xF1F8, symBinAddr: 0x1000118F8, symSize: 0x5C }
  - { offset: 0x1B790, size: 0x8, addend: 0x0, symName: __ZNSt3__117__compressed_pairIPNS_11__tree_nodeINS_12__value_typeIiiEEPvEENS_22__tree_node_destructorINS_9allocatorIS5_EEEEEC1B8ne180100IRS6_SA_EEOT_OT0_, symObjAddr: 0xF254, symBinAddr: 0x100011954, symSize: 0x3C }
  - { offset: 0x1B7E8, size: 0x8, addend: 0x0, symName: __ZNSt3__117__compressed_pairIPNS_11__tree_nodeINS_12__value_typeIiiEEPvEENS_22__tree_node_destructorINS_9allocatorIS5_EEEEEC2B8ne180100IRS6_SA_EEOT_OT0_, symObjAddr: 0xF290, symBinAddr: 0x100011990, symSize: 0x48 }
  - { offset: 0x1B840, size: 0x8, addend: 0x0, symName: __ZNSt3__122__compressed_pair_elemINS_22__tree_node_destructorINS_9allocatorINS_11__tree_nodeINS_12__value_typeIiiEEPvEEEEEELi1ELb0EEC2B8ne180100IS9_vEEOT_, symObjAddr: 0xF2D8, symBinAddr: 0x1000119D8, symSize: 0x24 }
  - { offset: 0x1B882, size: 0x8, addend: 0x0, symName: __ZNSt3__19allocatorINS_11__tree_nodeINS_12__value_typeIiiEEPvEEE9constructB8ne180100INS_4pairIKiiEEJRKSA_EEEvPT_DpOT0_, symObjAddr: 0xF2FC, symBinAddr: 0x1000119FC, symSize: 0x28 }
  - { offset: 0x1B8D8, size: 0x8, addend: 0x0, symName: __ZNKSt3__117__compressed_pairIPNS_11__tree_nodeINS_12__value_typeIiiEEPvEENS_22__tree_node_destructorINS_9allocatorIS5_EEEEE5firstB8ne180100Ev, symObjAddr: 0xF324, symBinAddr: 0x100011A24, symSize: 0x24 }
  - { offset: 0x1B8FE, size: 0x8, addend: 0x0, symName: __ZNSt3__117__compressed_pairIPNS_11__tree_nodeINS_12__value_typeIiiEEPvEENS_22__tree_node_destructorINS_9allocatorIS5_EEEEE6secondB8ne180100Ev, symObjAddr: 0xF348, symBinAddr: 0x100011A48, symSize: 0x28 }
  - { offset: 0x1B924, size: 0x8, addend: 0x0, symName: __ZNSt3__122__compressed_pair_elemINS_22__tree_node_destructorINS_9allocatorINS_11__tree_nodeINS_12__value_typeIiiEEPvEEEEEELi1ELb0EE5__getB8ne180100Ev, symObjAddr: 0xF370, symBinAddr: 0x100011A70, symSize: 0x14 }
  - { offset: 0x1B94A, size: 0x8, addend: 0x0, symName: __ZNSt3__117__compressed_pairIPNS_11__tree_nodeINS_12__value_typeIiiEEPvEENS_22__tree_node_destructorINS_9allocatorIS5_EEEEE5firstB8ne180100Ev, symObjAddr: 0xF384, symBinAddr: 0x100011A84, symSize: 0x24 }
  - { offset: 0x1B970, size: 0x8, addend: 0x0, symName: __ZNSt3__110unique_ptrINS_11__tree_nodeINS_12__value_typeIiiEEPvEENS_22__tree_node_destructorINS_9allocatorIS5_EEEEED2B8ne180100Ev, symObjAddr: 0xF3A8, symBinAddr: 0x100011AA8, symSize: 0x30 }
  - { offset: 0x1B99A, size: 0x8, addend: 0x0, symName: __ZNSt3__110unique_ptrINS_11__tree_nodeINS_12__value_typeIiiEEPvEENS_22__tree_node_destructorINS_9allocatorIS5_EEEEE5resetB8ne180100EPS5_, symObjAddr: 0xF3D8, symBinAddr: 0x100011AD8, symSize: 0x78 }
  - { offset: 0x1B9DE, size: 0x8, addend: 0x0, symName: __ZNSt3__122__tree_node_destructorINS_9allocatorINS_11__tree_nodeINS_12__value_typeIiiEEPvEEEEEclB8ne180100EPS6_, symObjAddr: 0xF450, symBinAddr: 0x100011B50, symSize: 0xAC }
  - { offset: 0x1BA13, size: 0x8, addend: 0x0, symName: __ZNSt3__115__tree_iteratorINS_12__value_typeIiiEEPNS_11__tree_nodeIS2_PvEElEC2B8ne180100ES6_, symObjAddr: 0xF4FC, symBinAddr: 0x100011BFC, symSize: 0x20 }
  - { offset: 0x1BA4C, size: 0x8, addend: 0x0, symName: __ZNSt3__14pairINS_15__tree_iteratorINS_12__value_typeIiiEEPNS_11__tree_nodeIS3_PvEElEEbEC2B8ne180100ERKS8_RKb, symObjAddr: 0xF51C, symBinAddr: 0x100011C1C, symSize: 0x38 }
  - { offset: 0x1BA92, size: 0x8, addend: 0x0, symName: __ZNSt3__114__map_iteratorINS_15__tree_iteratorINS_12__value_typeIiiEEPNS_11__tree_nodeIS3_PvEElEEEC2B8ne180100ES8_, symObjAddr: 0xF554, symBinAddr: 0x100011C54, symSize: 0x20 }
  - { offset: 0x1BACB, size: 0x8, addend: 0x0, symName: __ZNSt3__120__map_const_iteratorINS_21__tree_const_iteratorINS_12__value_typeIiiEEPNS_11__tree_nodeIS3_PvEElEEEC2B8ne180100ES8_, symObjAddr: 0xF574, symBinAddr: 0x100011C74, symSize: 0x20 }
  - { offset: 0x1BB04, size: 0x8, addend: 0x0, symName: __ZNKSt3__121__tree_const_iteratorINS_12__value_typeIiiEEPNS_11__tree_nodeIS2_PvEElEptB8ne180100Ev, symObjAddr: 0xF594, symBinAddr: 0x100011C94, symSize: 0x2C }
  - { offset: 0x1BB2A, size: 0x8, addend: 0x0, symName: __ZNSt3__114pointer_traitsIPKNS_12__value_typeIiiEEE10pointer_toB8ne180100ERS3_, symObjAddr: 0xF5C0, symBinAddr: 0x100011CC0, symSize: 0x14 }
  - { offset: 0x1BB4D, size: 0x8, addend: 0x0, symName: __ZNKSt3__16__treeINS_12__value_typeIiiEENS_19__map_value_compareIiS2_NS_4lessIiEELb1EEENS_9allocatorIS2_EEE5beginB8ne180100Ev, symObjAddr: 0xF5D4, symBinAddr: 0x100011CD4, symSize: 0x34 }
  - { offset: 0x1BB73, size: 0x8, addend: 0x0, symName: __ZNKSt3__16__treeINS_12__value_typeIiiEENS_19__map_value_compareIiS2_NS_4lessIiEELb1EEENS_9allocatorIS2_EEE12__begin_nodeB8ne180100Ev, symObjAddr: 0xF608, symBinAddr: 0x100011D08, symSize: 0x14 }
  - { offset: 0x1BB99, size: 0x8, addend: 0x0, symName: __ZNSt3__121__tree_const_iteratorINS_12__value_typeIiiEEPNS_11__tree_nodeIS2_PvEElEC1B8ne180100EPNS_15__tree_end_nodeIPNS_16__tree_node_baseIS4_EEEE, symObjAddr: 0xF61C, symBinAddr: 0x100011D1C, symSize: 0x34 }
  - { offset: 0x1BBD2, size: 0x8, addend: 0x0, symName: __ZNSt3__121__tree_const_iteratorINS_12__value_typeIiiEEPNS_11__tree_nodeIS2_PvEElEC2B8ne180100EPNS_15__tree_end_nodeIPNS_16__tree_node_baseIS4_EEEE, symObjAddr: 0xF650, symBinAddr: 0x100011D50, symSize: 0x20 }
  - { offset: 0x1BC0B, size: 0x8, addend: 0x0, symName: __ZNKSt3__16__treeINS_12__value_typeIiiEENS_19__map_value_compareIiS2_NS_4lessIiEELb1EEENS_9allocatorIS2_EEE3endB8ne180100Ev, symObjAddr: 0xF670, symBinAddr: 0x100011D70, symSize: 0x34 }
  - { offset: 0x1BC36, size: 0x8, addend: 0x0, symName: __ZNSt3__119__to_address_helperINS_16reverse_iteratorIPNS_3mapIiiNS_4lessIiEENS_9allocatorINS_4pairIKiiEEEEEEEEvE6__callB8ne180100ERKSC_, symObjAddr: 0xF6A4, symBinAddr: 0x100011DA4, symSize: 0x4C }
  - { offset: 0x1BC59, size: 0x8, addend: 0x0, symName: __ZNKSt3__116reverse_iteratorIPNS_3mapIiiNS_4lessIiEENS_9allocatorINS_4pairIKiiEEEEEEEptB8ne180100Ev, symObjAddr: 0xF6F0, symBinAddr: 0x100011DF0, symSize: 0x24 }
  - { offset: 0x1BC7F, size: 0x8, addend: 0x0, symName: __ZNSt3__128__exception_guard_exceptionsINS_29_AllocatorDestroyRangeReverseINS_9allocatorINS_3mapIiiNS_4lessIiEENS2_INS_4pairIKiiEEEEEEEENS_16reverse_iteratorIPSA_EEEEED2B8ne180100Ev, symObjAddr: 0xF714, symBinAddr: 0x100011E14, symSize: 0x48 }
  - { offset: 0x1BCA9, size: 0x8, addend: 0x0, symName: __ZNKSt3__129_AllocatorDestroyRangeReverseINS_9allocatorINS_3mapIiiNS_4lessIiEENS1_INS_4pairIKiiEEEEEEEENS_16reverse_iteratorIPS9_EEEclB8ne180100Ev, symObjAddr: 0xF75C, symBinAddr: 0x100011E5C, symSize: 0xB4 }
  - { offset: 0x1BCD0, size: 0x8, addend: 0x0, symName: __ZNSt3__116reverse_iteratorINS0_IPNS_3mapIiiNS_4lessIiEENS_9allocatorINS_4pairIKiiEEEEEEEEEC1B8ne180100ESB_, symObjAddr: 0xF880, symBinAddr: 0x100011F80, symSize: 0x3C }
  - { offset: 0x1BD08, size: 0x8, addend: 0x0, symName: __ZNSt3__116reverse_iteratorINS0_IPNS_3mapIiiNS_4lessIiEENS_9allocatorINS_4pairIKiiEEEEEEEEEppB8ne180100Ev, symObjAddr: 0xF940, symBinAddr: 0x100012040, symSize: 0x30 }
  - { offset: 0x1BD2E, size: 0x8, addend: 0x0, symName: __ZNKSt3__116reverse_iteratorINS0_IPNS_3mapIiiNS_4lessIiEENS_9allocatorINS_4pairIKiiEEEEEEEEE4baseB8ne180100Ev, symObjAddr: 0xF970, symBinAddr: 0x100012070, symSize: 0x24 }
  - { offset: 0x1BD59, size: 0x8, addend: 0x0, symName: __ZNSt3__119__to_address_helperINS_16reverse_iteratorINS1_IPNS_3mapIiiNS_4lessIiEENS_9allocatorINS_4pairIKiiEEEEEEEEEEvE6__callB8ne180100ERKSD_, symObjAddr: 0xF994, symBinAddr: 0x100012094, symSize: 0x4C }
  - { offset: 0x1BD7C, size: 0x8, addend: 0x0, symName: __ZNKSt3__116reverse_iteratorINS0_IPNS_3mapIiiNS_4lessIiEENS_9allocatorINS_4pairIKiiEEEEEEEEEptB8ne180100Ev, symObjAddr: 0xF9E0, symBinAddr: 0x1000120E0, symSize: 0x24 }
  - { offset: 0x1BDA2, size: 0x8, addend: 0x0, symName: __ZNKSt3__116reverse_iteratorINS0_IPNS_3mapIiiNS_4lessIiEENS_9allocatorINS_4pairIKiiEEEEEEEEEdeB8ne180100Ev, symObjAddr: 0xFA04, symBinAddr: 0x100012104, symSize: 0x34 }
  - { offset: 0x1BDD6, size: 0x8, addend: 0x0, symName: __ZNSt3__116reverse_iteratorIPNS_3mapIiiNS_4lessIiEENS_9allocatorINS_4pairIKiiEEEEEEEmmB8ne180100Ev, symObjAddr: 0xFA38, symBinAddr: 0x100012138, symSize: 0x20 }
  - { offset: 0x1BDFC, size: 0x8, addend: 0x0, symName: __ZNSt3__116reverse_iteratorINS0_IPNS_3mapIiiNS_4lessIiEENS_9allocatorINS_4pairIKiiEEEEEEEEEC2B8ne180100ESB_, symObjAddr: 0xFA58, symBinAddr: 0x100012158, symSize: 0x2C }
  - { offset: 0x1BE34, size: 0x8, addend: 0x0, symName: __ZNSt3__116reverse_iteratorIPNS_3mapIiiNS_4lessIiEENS_9allocatorINS_4pairIKiiEEEEEEEC2B8ne180100ESA_, symObjAddr: 0xFA84, symBinAddr: 0x100012184, symSize: 0x28 }
  - { offset: 0x1BE6C, size: 0x8, addend: 0x0, symName: __ZNSt3__114__split_bufferINS_3mapIiiNS_4lessIiEENS_9allocatorINS_4pairIKiiEEEEEERNS4_IS9_EEED2Ev, symObjAddr: 0xFAAC, symBinAddr: 0x1000121AC, symSize: 0x80 }
  - { offset: 0x1BE98, size: 0x8, addend: 0x0, symName: __ZNSt3__114__split_bufferINS_3mapIiiNS_4lessIiEENS_9allocatorINS_4pairIKiiEEEEEERNS4_IS9_EEE5clearB8ne180100Ev, symObjAddr: 0xFB2C, symBinAddr: 0x10001222C, symSize: 0x28 }
  - { offset: 0x1BEBE, size: 0x8, addend: 0x0, symName: __ZNKSt3__114__split_bufferINS_3mapIiiNS_4lessIiEENS_9allocatorINS_4pairIKiiEEEEEERNS4_IS9_EEE8capacityB8ne180100Ev, symObjAddr: 0xFB54, symBinAddr: 0x100012254, symSize: 0x40 }
  - { offset: 0x1BEE4, size: 0x8, addend: 0x0, symName: __ZNSt3__114__split_bufferINS_3mapIiiNS_4lessIiEENS_9allocatorINS_4pairIKiiEEEEEERNS4_IS9_EEE17__destruct_at_endB8ne180100EPS9_, symObjAddr: 0xFB94, symBinAddr: 0x100012294, symSize: 0x2C }
  - { offset: 0x1BF18, size: 0x8, addend: 0x0, symName: __ZNSt3__114__split_bufferINS_3mapIiiNS_4lessIiEENS_9allocatorINS_4pairIKiiEEEEEERNS4_IS9_EEE17__destruct_at_endB8ne180100EPS9_NS_17integral_constantIbLb0EEE, symObjAddr: 0xFBC0, symBinAddr: 0x1000122C0, symSize: 0x94 }
  - { offset: 0x1BF58, size: 0x8, addend: 0x0, symName: __ZNKSt3__114__split_bufferINS_3mapIiiNS_4lessIiEENS_9allocatorINS_4pairIKiiEEEEEERNS4_IS9_EEE9__end_capB8ne180100Ev, symObjAddr: 0xFC54, symBinAddr: 0x100012354, symSize: 0x28 }
  - { offset: 0x1BF7E, size: 0x8, addend: 0x0, symName: __ZNKSt3__117__compressed_pairIPNS_3mapIiiNS_4lessIiEENS_9allocatorINS_4pairIKiiEEEEEERNS4_IS9_EEE5firstB8ne180100Ev, symObjAddr: 0xFC7C, symBinAddr: 0x10001237C, symSize: 0x24 }
  - { offset: 0x1BFA4, size: 0x8, addend: 0x0, symName: __ZNKSt3__16vectorINS_3mapIiiNS_4lessIiEENS_9allocatorINS_4pairIKiiEEEEEENS4_IS9_EEE17__annotate_shrinkB8ne180100Em, symObjAddr: 0xFCA0, symBinAddr: 0x1000123A0, symSize: 0x14 }
  - { offset: 0x1BFD9, size: 0x8, addend: 0x0, symName: __ZNSt3__16vectorIiNS_9allocatorIiEEE8__appendEmRKi, symObjAddr: 0xFCB4, symBinAddr: 0x1000123B4, symSize: 0x11C }
  - { offset: 0x1C043, size: 0x8, addend: 0x0, symName: __ZNSt3__16vectorIiNS_9allocatorIiEEE18__construct_at_endEmRKi, symObjAddr: 0xFDD0, symBinAddr: 0x1000124D0, symSize: 0xD8 }
  - { offset: 0x1C0C4, size: 0x8, addend: 0x0, symName: __ZNSt3__114__split_bufferIiRNS_9allocatorIiEEE18__construct_at_endEmRKi, symObjAddr: 0xFEA8, symBinAddr: 0x1000125A8, symSize: 0xC4 }
  - { offset: 0x1C121, size: 0x8, addend: 0x0, symName: __ZNSt3__114__split_bufferIiRNS_9allocatorIiEEE21_ConstructTransactionC1B8ne180100EPPim, symObjAddr: 0xFF6C, symBinAddr: 0x10001266C, symSize: 0x3C }
  - { offset: 0x1C167, size: 0x8, addend: 0x0, symName: __ZNSt3__114__split_bufferIiRNS_9allocatorIiEEE21_ConstructTransactionD1B8ne180100Ev, symObjAddr: 0xFFA8, symBinAddr: 0x1000126A8, symSize: 0x2C }
  - { offset: 0x1C191, size: 0x8, addend: 0x0, symName: __ZNSt3__114__split_bufferIiRNS_9allocatorIiEEE21_ConstructTransactionC2B8ne180100EPPim, symObjAddr: 0xFFD4, symBinAddr: 0x1000126D4, symSize: 0x44 }
  - { offset: 0x1C1D7, size: 0x8, addend: 0x0, symName: __ZNSt3__114__split_bufferIiRNS_9allocatorIiEEE21_ConstructTransactionD2B8ne180100Ev, symObjAddr: 0x10018, symBinAddr: 0x100012718, symSize: 0x20 }
...
